	.cpu arm7tdmi
	.fpu softvfp
	.eabi_attribute 20, 1
	.eabi_attribute 21, 1
	.eabi_attribute 23, 3
	.eabi_attribute 24, 1
	.eabi_attribute 25, 1
	.eabi_attribute 26, 1
	.eabi_attribute 30, 6
	.eabi_attribute 34, 0
	.eabi_attribute 18, 4
	.file	"rhythm_game_simulator.c"
	.global	char8x8
	.data
	.align	2
	.type	char8x8, %object
	.size	char8x8, 2048
char8x8:
	.byte	0
	.byte	0
	.byte	0
	.byte	0
	.byte	0
	.byte	0
	.byte	0
	.byte	0
	.byte	126
	.byte	-127
	.byte	-91
	.byte	-127
	.byte	-67
	.byte	-103
	.byte	-127
	.byte	126
	.byte	126
	.byte	-1
	.byte	-37
	.byte	-1
	.byte	-61
	.byte	-25
	.byte	-1
	.byte	126
	.byte	108
	.byte	-2
	.byte	-2
	.byte	-2
	.byte	124
	.byte	56
	.byte	16
	.byte	0
	.byte	16
	.byte	56
	.byte	124
	.byte	-2
	.byte	124
	.byte	56
	.byte	16
	.byte	0
	.byte	56
	.byte	124
	.byte	56
	.byte	-2
	.byte	-2
	.byte	-42
	.byte	16
	.byte	56
	.byte	16
	.byte	16
	.byte	56
	.byte	124
	.byte	-2
	.byte	124
	.byte	16
	.byte	56
	.byte	0
	.byte	0
	.byte	24
	.byte	60
	.byte	60
	.byte	24
	.byte	0
	.byte	0
	.byte	-1
	.byte	-1
	.byte	-25
	.byte	-61
	.byte	-61
	.byte	-25
	.byte	-1
	.byte	-1
	.byte	0
	.byte	60
	.byte	102
	.byte	66
	.byte	66
	.byte	102
	.byte	60
	.byte	0
	.byte	-1
	.byte	-61
	.byte	-103
	.byte	-67
	.byte	-67
	.byte	-103
	.byte	-61
	.byte	-1
	.byte	15
	.byte	7
	.byte	15
	.byte	125
	.byte	-52
	.byte	-52
	.byte	-52
	.byte	120
	.byte	60
	.byte	102
	.byte	102
	.byte	102
	.byte	60
	.byte	24
	.byte	126
	.byte	24
	.byte	63
	.byte	51
	.byte	63
	.byte	48
	.byte	48
	.byte	112
	.byte	-16
	.byte	-32
	.byte	127
	.byte	99
	.byte	127
	.byte	99
	.byte	99
	.byte	103
	.byte	-26
	.byte	-64
	.byte	-103
	.byte	90
	.byte	60
	.byte	-25
	.byte	-25
	.byte	60
	.byte	90
	.byte	-103
	.byte	-128
	.byte	-32
	.byte	-8
	.byte	-2
	.byte	-8
	.byte	-32
	.byte	-128
	.byte	0
	.byte	2
	.byte	14
	.byte	62
	.byte	-2
	.byte	62
	.byte	14
	.byte	2
	.byte	0
	.byte	24
	.byte	60
	.byte	126
	.byte	24
	.byte	24
	.byte	126
	.byte	60
	.byte	24
	.byte	102
	.byte	102
	.byte	102
	.byte	102
	.byte	102
	.byte	0
	.byte	102
	.byte	0
	.byte	127
	.byte	-37
	.byte	-37
	.byte	123
	.byte	27
	.byte	27
	.byte	27
	.byte	0
	.byte	126
	.byte	-61
	.byte	120
	.byte	-52
	.byte	-52
	.byte	120
	.byte	-116
	.byte	-8
	.byte	0
	.byte	0
	.byte	0
	.byte	0
	.byte	126
	.byte	126
	.byte	126
	.byte	0
	.byte	24
	.byte	60
	.byte	126
	.byte	24
	.byte	126
	.byte	60
	.byte	24
	.byte	-1
	.byte	24
	.byte	60
	.byte	126
	.byte	24
	.byte	24
	.byte	24
	.byte	24
	.byte	0
	.byte	24
	.byte	24
	.byte	24
	.byte	24
	.byte	126
	.byte	60
	.byte	24
	.byte	0
	.byte	0
	.byte	24
	.byte	12
	.byte	-2
	.byte	12
	.byte	24
	.byte	0
	.byte	0
	.byte	0
	.byte	48
	.byte	96
	.byte	-2
	.byte	96
	.byte	48
	.byte	0
	.byte	0
	.byte	0
	.byte	0
	.byte	-64
	.byte	-64
	.byte	-64
	.byte	-2
	.byte	0
	.byte	0
	.byte	0
	.byte	36
	.byte	102
	.byte	-1
	.byte	102
	.byte	36
	.byte	0
	.byte	0
	.byte	0
	.byte	24
	.byte	60
	.byte	126
	.byte	-1
	.byte	-1
	.byte	0
	.byte	0
	.byte	0
	.byte	-1
	.byte	-1
	.byte	126
	.byte	60
	.byte	24
	.byte	0
	.byte	0
	.byte	0
	.byte	0
	.byte	0
	.byte	0
	.byte	0
	.byte	0
	.byte	0
	.byte	0
	.byte	48
	.byte	120
	.byte	120
	.byte	48
	.byte	48
	.byte	0
	.byte	48
	.byte	0
	.byte	108
	.byte	108
	.byte	108
	.byte	0
	.byte	0
	.byte	0
	.byte	0
	.byte	0
	.byte	108
	.byte	108
	.byte	-2
	.byte	108
	.byte	-2
	.byte	108
	.byte	108
	.byte	0
	.byte	48
	.byte	124
	.byte	-64
	.byte	120
	.byte	12
	.byte	-8
	.byte	48
	.byte	0
	.byte	0
	.byte	-58
	.byte	-52
	.byte	24
	.byte	48
	.byte	102
	.byte	-58
	.byte	0
	.byte	56
	.byte	108
	.byte	56
	.byte	118
	.byte	-36
	.byte	-52
	.byte	118
	.byte	0
	.byte	96
	.byte	96
	.byte	-64
	.byte	0
	.byte	0
	.byte	0
	.byte	0
	.byte	0
	.byte	24
	.byte	48
	.byte	96
	.byte	96
	.byte	96
	.byte	48
	.byte	24
	.byte	0
	.byte	96
	.byte	48
	.byte	24
	.byte	24
	.byte	24
	.byte	48
	.byte	96
	.byte	0
	.byte	0
	.byte	102
	.byte	60
	.byte	-1
	.byte	60
	.byte	102
	.byte	0
	.byte	0
	.byte	0
	.byte	48
	.byte	48
	.byte	-4
	.byte	48
	.byte	48
	.byte	0
	.byte	0
	.byte	0
	.byte	0
	.byte	0
	.byte	0
	.byte	0
	.byte	112
	.byte	48
	.byte	96
	.byte	0
	.byte	0
	.byte	0
	.byte	-4
	.byte	0
	.byte	0
	.byte	0
	.byte	0
	.byte	0
	.byte	0
	.byte	0
	.byte	0
	.byte	0
	.byte	48
	.byte	48
	.byte	0
	.byte	6
	.byte	12
	.byte	24
	.byte	48
	.byte	96
	.byte	-64
	.byte	-128
	.byte	0
	.byte	120
	.byte	-52
	.byte	-36
	.byte	-4
	.byte	-20
	.byte	-52
	.byte	120
	.byte	0
	.byte	48
	.byte	-16
	.byte	48
	.byte	48
	.byte	48
	.byte	48
	.byte	-4
	.byte	0
	.byte	120
	.byte	-52
	.byte	12
	.byte	56
	.byte	96
	.byte	-52
	.byte	-4
	.byte	0
	.byte	120
	.byte	-52
	.byte	12
	.byte	56
	.byte	12
	.byte	-52
	.byte	120
	.byte	0
	.byte	28
	.byte	60
	.byte	108
	.byte	-52
	.byte	-2
	.byte	12
	.byte	12
	.byte	0
	.byte	-4
	.byte	-64
	.byte	-8
	.byte	12
	.byte	12
	.byte	-52
	.byte	120
	.byte	0
	.byte	56
	.byte	96
	.byte	-64
	.byte	-8
	.byte	-52
	.byte	-52
	.byte	120
	.byte	0
	.byte	-4
	.byte	-52
	.byte	12
	.byte	24
	.byte	48
	.byte	96
	.byte	96
	.byte	0
	.byte	120
	.byte	-52
	.byte	-52
	.byte	120
	.byte	-52
	.byte	-52
	.byte	120
	.byte	0
	.byte	120
	.byte	-52
	.byte	-52
	.byte	124
	.byte	12
	.byte	24
	.byte	112
	.byte	0
	.byte	0
	.byte	0
	.byte	48
	.byte	48
	.byte	0
	.byte	48
	.byte	48
	.byte	0
	.byte	0
	.byte	0
	.byte	48
	.byte	48
	.byte	0
	.byte	112
	.byte	48
	.byte	96
	.byte	24
	.byte	48
	.byte	96
	.byte	-64
	.byte	96
	.byte	48
	.byte	24
	.byte	0
	.byte	0
	.byte	0
	.byte	-4
	.byte	0
	.byte	-4
	.byte	0
	.byte	0
	.byte	0
	.byte	96
	.byte	48
	.byte	24
	.byte	12
	.byte	24
	.byte	48
	.byte	96
	.byte	0
	.byte	120
	.byte	-52
	.byte	12
	.byte	24
	.byte	48
	.byte	0
	.byte	48
	.byte	0
	.byte	124
	.byte	-58
	.byte	-34
	.byte	-34
	.byte	-34
	.byte	-64
	.byte	120
	.byte	0
	.byte	48
	.byte	120
	.byte	-52
	.byte	-52
	.byte	-4
	.byte	-52
	.byte	-52
	.byte	0
	.byte	-4
	.byte	102
	.byte	102
	.byte	124
	.byte	102
	.byte	102
	.byte	-4
	.byte	0
	.byte	60
	.byte	102
	.byte	-64
	.byte	-64
	.byte	-64
	.byte	102
	.byte	60
	.byte	0
	.byte	-4
	.byte	108
	.byte	102
	.byte	102
	.byte	102
	.byte	108
	.byte	-4
	.byte	0
	.byte	-2
	.byte	98
	.byte	104
	.byte	120
	.byte	104
	.byte	98
	.byte	-2
	.byte	0
	.byte	-2
	.byte	98
	.byte	104
	.byte	120
	.byte	104
	.byte	96
	.byte	-16
	.byte	0
	.byte	60
	.byte	102
	.byte	-64
	.byte	-64
	.byte	-50
	.byte	102
	.byte	62
	.byte	0
	.byte	-52
	.byte	-52
	.byte	-52
	.byte	-4
	.byte	-52
	.byte	-52
	.byte	-52
	.byte	0
	.byte	120
	.byte	48
	.byte	48
	.byte	48
	.byte	48
	.byte	48
	.byte	120
	.byte	0
	.byte	30
	.byte	12
	.byte	12
	.byte	12
	.byte	-52
	.byte	-52
	.byte	120
	.byte	0
	.byte	-26
	.byte	102
	.byte	108
	.byte	120
	.byte	108
	.byte	102
	.byte	-26
	.byte	0
	.byte	-16
	.byte	96
	.byte	96
	.byte	96
	.byte	98
	.byte	102
	.byte	-2
	.byte	0
	.byte	-58
	.byte	-18
	.byte	-2
	.byte	-42
	.byte	-58
	.byte	-58
	.byte	-58
	.byte	0
	.byte	-58
	.byte	-26
	.byte	-10
	.byte	-34
	.byte	-50
	.byte	-58
	.byte	-58
	.byte	0
	.byte	56
	.byte	108
	.byte	-58
	.byte	-58
	.byte	-58
	.byte	108
	.byte	56
	.byte	0
	.byte	-4
	.byte	102
	.byte	102
	.byte	124
	.byte	96
	.byte	96
	.byte	-16
	.byte	0
	.byte	120
	.byte	-52
	.byte	-52
	.byte	-52
	.byte	-36
	.byte	120
	.byte	28
	.byte	0
	.byte	-4
	.byte	102
	.byte	102
	.byte	124
	.byte	120
	.byte	108
	.byte	-26
	.byte	0
	.byte	120
	.byte	-52
	.byte	-32
	.byte	56
	.byte	28
	.byte	-52
	.byte	120
	.byte	0
	.byte	-4
	.byte	-76
	.byte	48
	.byte	48
	.byte	48
	.byte	48
	.byte	120
	.byte	0
	.byte	-52
	.byte	-52
	.byte	-52
	.byte	-52
	.byte	-52
	.byte	-52
	.byte	-4
	.byte	0
	.byte	-52
	.byte	-52
	.byte	-52
	.byte	-52
	.byte	-52
	.byte	120
	.byte	48
	.byte	0
	.byte	-58
	.byte	-58
	.byte	-58
	.byte	-42
	.byte	-2
	.byte	-18
	.byte	-58
	.byte	0
	.byte	-58
	.byte	-58
	.byte	108
	.byte	56
	.byte	108
	.byte	-58
	.byte	-58
	.byte	0
	.byte	-52
	.byte	-52
	.byte	-52
	.byte	120
	.byte	48
	.byte	48
	.byte	120
	.byte	0
	.byte	-2
	.byte	-52
	.byte	-104
	.byte	48
	.byte	98
	.byte	-58
	.byte	-2
	.byte	0
	.byte	120
	.byte	96
	.byte	96
	.byte	96
	.byte	96
	.byte	96
	.byte	120
	.byte	0
	.byte	-64
	.byte	96
	.byte	48
	.byte	24
	.byte	12
	.byte	6
	.byte	2
	.byte	0
	.byte	120
	.byte	24
	.byte	24
	.byte	24
	.byte	24
	.byte	24
	.byte	120
	.byte	0
	.byte	16
	.byte	56
	.byte	108
	.byte	-58
	.byte	0
	.byte	0
	.byte	0
	.byte	0
	.byte	0
	.byte	0
	.byte	0
	.byte	0
	.byte	0
	.byte	0
	.byte	0
	.byte	-1
	.byte	48
	.byte	48
	.byte	24
	.byte	0
	.byte	0
	.byte	0
	.byte	0
	.byte	0
	.byte	0
	.byte	0
	.byte	120
	.byte	12
	.byte	124
	.byte	-52
	.byte	118
	.byte	0
	.byte	-32
	.byte	96
	.byte	124
	.byte	102
	.byte	102
	.byte	102
	.byte	-68
	.byte	0
	.byte	0
	.byte	0
	.byte	120
	.byte	-52
	.byte	-64
	.byte	-52
	.byte	120
	.byte	0
	.byte	28
	.byte	12
	.byte	12
	.byte	124
	.byte	-52
	.byte	-52
	.byte	118
	.byte	0
	.byte	0
	.byte	0
	.byte	120
	.byte	-52
	.byte	-4
	.byte	-64
	.byte	120
	.byte	0
	.byte	56
	.byte	108
	.byte	96
	.byte	-16
	.byte	96
	.byte	96
	.byte	-16
	.byte	0
	.byte	0
	.byte	0
	.byte	118
	.byte	-52
	.byte	-52
	.byte	124
	.byte	12
	.byte	-8
	.byte	-32
	.byte	96
	.byte	108
	.byte	118
	.byte	102
	.byte	102
	.byte	-26
	.byte	0
	.byte	48
	.byte	0
	.byte	112
	.byte	48
	.byte	48
	.byte	48
	.byte	120
	.byte	0
	.byte	24
	.byte	0
	.byte	120
	.byte	24
	.byte	24
	.byte	24
	.byte	-40
	.byte	112
	.byte	-32
	.byte	96
	.byte	102
	.byte	108
	.byte	120
	.byte	108
	.byte	-26
	.byte	0
	.byte	112
	.byte	48
	.byte	48
	.byte	48
	.byte	48
	.byte	48
	.byte	120
	.byte	0
	.byte	0
	.byte	0
	.byte	-20
	.byte	-2
	.byte	-42
	.byte	-58
	.byte	-58
	.byte	0
	.byte	0
	.byte	0
	.byte	-8
	.byte	-52
	.byte	-52
	.byte	-52
	.byte	-52
	.byte	0
	.byte	0
	.byte	0
	.byte	120
	.byte	-52
	.byte	-52
	.byte	-52
	.byte	120
	.byte	0
	.byte	0
	.byte	0
	.byte	-36
	.byte	102
	.byte	102
	.byte	124
	.byte	96
	.byte	-16
	.byte	0
	.byte	0
	.byte	118
	.byte	-52
	.byte	-52
	.byte	124
	.byte	12
	.byte	30
	.byte	0
	.byte	0
	.byte	-40
	.byte	108
	.byte	108
	.byte	96
	.byte	-16
	.byte	0
	.byte	0
	.byte	0
	.byte	124
	.byte	-64
	.byte	120
	.byte	12
	.byte	-8
	.byte	0
	.byte	16
	.byte	48
	.byte	124
	.byte	48
	.byte	48
	.byte	52
	.byte	24
	.byte	0
	.byte	0
	.byte	0
	.byte	-52
	.byte	-52
	.byte	-52
	.byte	-52
	.byte	118
	.byte	0
	.byte	0
	.byte	0
	.byte	-52
	.byte	-52
	.byte	-52
	.byte	120
	.byte	48
	.byte	0
	.byte	0
	.byte	0
	.byte	-58
	.byte	-58
	.byte	-42
	.byte	-2
	.byte	108
	.byte	0
	.byte	0
	.byte	0
	.byte	-58
	.byte	108
	.byte	56
	.byte	108
	.byte	-58
	.byte	0
	.byte	0
	.byte	0
	.byte	-52
	.byte	-52
	.byte	-52
	.byte	124
	.byte	12
	.byte	-8
	.byte	0
	.byte	0
	.byte	-4
	.byte	-104
	.byte	48
	.byte	100
	.byte	-4
	.byte	0
	.byte	28
	.byte	48
	.byte	48
	.byte	-32
	.byte	48
	.byte	48
	.byte	28
	.byte	0
	.byte	24
	.byte	24
	.byte	24
	.byte	0
	.byte	24
	.byte	24
	.byte	24
	.byte	0
	.byte	-32
	.byte	48
	.byte	48
	.byte	28
	.byte	48
	.byte	48
	.byte	-32
	.byte	0
	.byte	118
	.byte	-36
	.byte	0
	.byte	0
	.byte	0
	.byte	0
	.byte	0
	.byte	0
	.byte	16
	.byte	56
	.byte	108
	.byte	-58
	.byte	-58
	.byte	-58
	.byte	-2
	.byte	0
	.byte	120
	.byte	-52
	.byte	-64
	.byte	-52
	.byte	120
	.byte	24
	.byte	12
	.byte	120
	.byte	0
	.byte	-52
	.byte	0
	.byte	-52
	.byte	-52
	.byte	-52
	.byte	126
	.byte	0
	.byte	28
	.byte	0
	.byte	120
	.byte	-52
	.byte	-4
	.byte	-64
	.byte	120
	.byte	0
	.byte	126
	.byte	-61
	.byte	60
	.byte	6
	.byte	62
	.byte	102
	.byte	63
	.byte	0
	.byte	-52
	.byte	0
	.byte	120
	.byte	12
	.byte	124
	.byte	-52
	.byte	126
	.byte	0
	.byte	-32
	.byte	0
	.byte	120
	.byte	12
	.byte	124
	.byte	-52
	.byte	126
	.byte	0
	.byte	48
	.byte	48
	.byte	120
	.byte	12
	.byte	124
	.byte	-52
	.byte	126
	.byte	0
	.byte	0
	.byte	0
	.byte	124
	.byte	-64
	.byte	-64
	.byte	124
	.byte	6
	.byte	60
	.byte	126
	.byte	-61
	.byte	60
	.byte	102
	.byte	126
	.byte	96
	.byte	60
	.byte	0
	.byte	-52
	.byte	0
	.byte	120
	.byte	-52
	.byte	-4
	.byte	-64
	.byte	120
	.byte	0
	.byte	-32
	.byte	0
	.byte	120
	.byte	-52
	.byte	-4
	.byte	-64
	.byte	120
	.byte	0
	.byte	-52
	.byte	0
	.byte	112
	.byte	48
	.byte	48
	.byte	48
	.byte	120
	.byte	0
	.byte	124
	.byte	-58
	.byte	56
	.byte	24
	.byte	24
	.byte	24
	.byte	60
	.byte	0
	.byte	-32
	.byte	0
	.byte	112
	.byte	48
	.byte	48
	.byte	48
	.byte	120
	.byte	0
	.byte	-52
	.byte	48
	.byte	120
	.byte	-52
	.byte	-52
	.byte	-4
	.byte	-52
	.byte	0
	.byte	48
	.byte	48
	.byte	0
	.byte	120
	.byte	-52
	.byte	-4
	.byte	-52
	.byte	0
	.byte	28
	.byte	0
	.byte	-4
	.byte	96
	.byte	120
	.byte	96
	.byte	-4
	.byte	0
	.byte	0
	.byte	0
	.byte	127
	.byte	12
	.byte	127
	.byte	-52
	.byte	127
	.byte	0
	.byte	62
	.byte	108
	.byte	-52
	.byte	-2
	.byte	-52
	.byte	-52
	.byte	-50
	.byte	0
	.byte	120
	.byte	-52
	.byte	0
	.byte	120
	.byte	-52
	.byte	-52
	.byte	120
	.byte	0
	.byte	0
	.byte	-52
	.byte	0
	.byte	120
	.byte	-52
	.byte	-52
	.byte	120
	.byte	0
	.byte	0
	.byte	-32
	.byte	0
	.byte	120
	.byte	-52
	.byte	-52
	.byte	120
	.byte	0
	.byte	120
	.byte	-52
	.byte	0
	.byte	-52
	.byte	-52
	.byte	-52
	.byte	126
	.byte	0
	.byte	0
	.byte	-32
	.byte	0
	.byte	-52
	.byte	-52
	.byte	-52
	.byte	126
	.byte	0
	.byte	0
	.byte	-52
	.byte	0
	.byte	-52
	.byte	-52
	.byte	-4
	.byte	12
	.byte	-8
	.byte	-58
	.byte	56
	.byte	124
	.byte	-58
	.byte	-58
	.byte	124
	.byte	56
	.byte	0
	.byte	-52
	.byte	0
	.byte	-52
	.byte	-52
	.byte	-52
	.byte	-52
	.byte	120
	.byte	0
	.byte	24
	.byte	24
	.byte	126
	.byte	-64
	.byte	-64
	.byte	126
	.byte	24
	.byte	24
	.byte	56
	.byte	108
	.byte	100
	.byte	-16
	.byte	96
	.byte	-26
	.byte	-4
	.byte	0
	.byte	-52
	.byte	-52
	.byte	120
	.byte	-4
	.byte	48
	.byte	-4
	.byte	48
	.byte	0
	.byte	-16
	.byte	-40
	.byte	-40
	.byte	-12
	.byte	-52
	.byte	-34
	.byte	-52
	.byte	14
	.byte	14
	.byte	27
	.byte	24
	.byte	126
	.byte	24
	.byte	24
	.byte	-40
	.byte	112
	.byte	28
	.byte	0
	.byte	120
	.byte	12
	.byte	124
	.byte	-52
	.byte	126
	.byte	0
	.byte	56
	.byte	0
	.byte	112
	.byte	48
	.byte	48
	.byte	48
	.byte	120
	.byte	0
	.byte	0
	.byte	28
	.byte	0
	.byte	120
	.byte	-52
	.byte	-52
	.byte	120
	.byte	0
	.byte	0
	.byte	28
	.byte	0
	.byte	-52
	.byte	-52
	.byte	-52
	.byte	126
	.byte	0
	.byte	0
	.byte	-8
	.byte	0
	.byte	-8
	.byte	-52
	.byte	-52
	.byte	-52
	.byte	0
	.byte	-4
	.byte	0
	.byte	-52
	.byte	-20
	.byte	-4
	.byte	-36
	.byte	-52
	.byte	0
	.byte	60
	.byte	108
	.byte	108
	.byte	62
	.byte	0
	.byte	126
	.byte	0
	.byte	0
	.byte	60
	.byte	102
	.byte	102
	.byte	60
	.byte	0
	.byte	126
	.byte	0
	.byte	0
	.byte	48
	.byte	0
	.byte	48
	.byte	96
	.byte	-64
	.byte	-52
	.byte	120
	.byte	0
	.byte	0
	.byte	0
	.byte	0
	.byte	-4
	.byte	-64
	.byte	-64
	.byte	0
	.byte	0
	.byte	0
	.byte	0
	.byte	0
	.byte	-4
	.byte	12
	.byte	12
	.byte	0
	.byte	0
	.byte	-58
	.byte	-52
	.byte	-40
	.byte	62
	.byte	99
	.byte	-50
	.byte	-104
	.byte	31
	.byte	-58
	.byte	-52
	.byte	-40
	.byte	-13
	.byte	103
	.byte	-49
	.byte	-97
	.byte	3
	.byte	0
	.byte	24
	.byte	0
	.byte	24
	.byte	24
	.byte	60
	.byte	60
	.byte	24
	.byte	0
	.byte	51
	.byte	102
	.byte	-52
	.byte	102
	.byte	51
	.byte	0
	.byte	0
	.byte	0
	.byte	-52
	.byte	102
	.byte	51
	.byte	102
	.byte	-52
	.byte	0
	.byte	0
	.byte	34
	.byte	-120
	.byte	34
	.byte	-120
	.byte	34
	.byte	-120
	.byte	34
	.byte	-120
	.byte	85
	.byte	-86
	.byte	85
	.byte	-86
	.byte	85
	.byte	-86
	.byte	85
	.byte	-86
	.byte	-35
	.byte	119
	.byte	-35
	.byte	119
	.byte	-35
	.byte	119
	.byte	-35
	.byte	119
	.byte	24
	.byte	24
	.byte	24
	.byte	24
	.byte	24
	.byte	24
	.byte	24
	.byte	24
	.byte	24
	.byte	24
	.byte	24
	.byte	24
	.byte	-8
	.byte	24
	.byte	24
	.byte	24
	.byte	24
	.byte	24
	.byte	-8
	.byte	24
	.byte	-8
	.byte	24
	.byte	24
	.byte	24
	.byte	54
	.byte	54
	.byte	54
	.byte	54
	.byte	-10
	.byte	54
	.byte	54
	.byte	54
	.byte	0
	.byte	0
	.byte	0
	.byte	0
	.byte	-2
	.byte	54
	.byte	54
	.byte	54
	.byte	0
	.byte	0
	.byte	-8
	.byte	24
	.byte	-8
	.byte	24
	.byte	24
	.byte	24
	.byte	54
	.byte	54
	.byte	-10
	.byte	6
	.byte	-10
	.byte	54
	.byte	54
	.byte	54
	.byte	54
	.byte	54
	.byte	54
	.byte	54
	.byte	54
	.byte	54
	.byte	54
	.byte	54
	.byte	0
	.byte	0
	.byte	-2
	.byte	6
	.byte	-10
	.byte	54
	.byte	54
	.byte	54
	.byte	54
	.byte	54
	.byte	-10
	.byte	6
	.byte	-2
	.byte	0
	.byte	0
	.byte	0
	.byte	54
	.byte	54
	.byte	54
	.byte	54
	.byte	-2
	.byte	0
	.byte	0
	.byte	0
	.byte	24
	.byte	24
	.byte	-8
	.byte	24
	.byte	-8
	.byte	0
	.byte	0
	.byte	0
	.byte	0
	.byte	0
	.byte	0
	.byte	0
	.byte	-8
	.byte	24
	.byte	24
	.byte	24
	.byte	24
	.byte	24
	.byte	24
	.byte	24
	.byte	31
	.byte	0
	.byte	0
	.byte	0
	.byte	24
	.byte	24
	.byte	24
	.byte	24
	.byte	-1
	.byte	0
	.byte	0
	.byte	0
	.byte	0
	.byte	0
	.byte	0
	.byte	0
	.byte	-1
	.byte	24
	.byte	24
	.byte	24
	.byte	24
	.byte	24
	.byte	24
	.byte	24
	.byte	31
	.byte	24
	.byte	24
	.byte	24
	.byte	0
	.byte	0
	.byte	0
	.byte	0
	.byte	-1
	.byte	0
	.byte	0
	.byte	0
	.byte	24
	.byte	24
	.byte	24
	.byte	24
	.byte	-1
	.byte	24
	.byte	24
	.byte	24
	.byte	24
	.byte	24
	.byte	31
	.byte	24
	.byte	31
	.byte	24
	.byte	24
	.byte	24
	.byte	54
	.byte	54
	.byte	54
	.byte	54
	.byte	55
	.byte	54
	.byte	54
	.byte	54
	.byte	54
	.byte	54
	.byte	55
	.byte	48
	.byte	63
	.byte	0
	.byte	0
	.byte	0
	.byte	0
	.byte	0
	.byte	63
	.byte	48
	.byte	55
	.byte	54
	.byte	54
	.byte	54
	.byte	54
	.byte	54
	.byte	-9
	.byte	0
	.byte	-1
	.byte	0
	.byte	0
	.byte	0
	.byte	0
	.byte	0
	.byte	-1
	.byte	0
	.byte	-9
	.byte	54
	.byte	54
	.byte	54
	.byte	54
	.byte	54
	.byte	55
	.byte	48
	.byte	55
	.byte	54
	.byte	54
	.byte	54
	.byte	0
	.byte	0
	.byte	-1
	.byte	0
	.byte	-1
	.byte	0
	.byte	0
	.byte	0
	.byte	54
	.byte	54
	.byte	-9
	.byte	0
	.byte	-9
	.byte	54
	.byte	54
	.byte	54
	.byte	24
	.byte	24
	.byte	-1
	.byte	0
	.byte	-1
	.byte	0
	.byte	0
	.byte	0
	.byte	54
	.byte	54
	.byte	54
	.byte	54
	.byte	-1
	.byte	0
	.byte	0
	.byte	0
	.byte	0
	.byte	0
	.byte	-1
	.byte	0
	.byte	-1
	.byte	24
	.byte	24
	.byte	24
	.byte	0
	.byte	0
	.byte	0
	.byte	0
	.byte	-1
	.byte	54
	.byte	54
	.byte	54
	.byte	54
	.byte	54
	.byte	54
	.byte	54
	.byte	63
	.byte	0
	.byte	0
	.byte	0
	.byte	24
	.byte	24
	.byte	31
	.byte	24
	.byte	31
	.byte	0
	.byte	0
	.byte	0
	.byte	0
	.byte	0
	.byte	31
	.byte	24
	.byte	31
	.byte	24
	.byte	24
	.byte	24
	.byte	0
	.byte	0
	.byte	0
	.byte	0
	.byte	63
	.byte	54
	.byte	54
	.byte	54
	.byte	54
	.byte	54
	.byte	54
	.byte	54
	.byte	-9
	.byte	54
	.byte	54
	.byte	54
	.byte	24
	.byte	24
	.byte	-1
	.byte	0
	.byte	-1
	.byte	24
	.byte	24
	.byte	24
	.byte	24
	.byte	24
	.byte	24
	.byte	24
	.byte	-8
	.byte	0
	.byte	0
	.byte	0
	.byte	0
	.byte	0
	.byte	0
	.byte	0
	.byte	31
	.byte	24
	.byte	24
	.byte	24
	.byte	-1
	.byte	-1
	.byte	-1
	.byte	-1
	.byte	-1
	.byte	-1
	.byte	-1
	.byte	-1
	.byte	0
	.byte	0
	.byte	0
	.byte	0
	.byte	-1
	.byte	-1
	.byte	-1
	.byte	-1
	.byte	-16
	.byte	-16
	.byte	-16
	.byte	-16
	.byte	-16
	.byte	-16
	.byte	-16
	.byte	-16
	.byte	15
	.byte	15
	.byte	15
	.byte	15
	.byte	15
	.byte	15
	.byte	15
	.byte	15
	.byte	-1
	.byte	-1
	.byte	-1
	.byte	-1
	.byte	0
	.byte	0
	.byte	0
	.byte	0
	.byte	0
	.byte	0
	.byte	118
	.byte	-36
	.byte	-56
	.byte	-36
	.byte	118
	.byte	0
	.byte	0
	.byte	120
	.byte	-52
	.byte	-8
	.byte	-52
	.byte	-8
	.byte	-64
	.byte	-64
	.byte	0
	.byte	-2
	.byte	-58
	.byte	-64
	.byte	-64
	.byte	-64
	.byte	-64
	.byte	0
	.byte	0
	.byte	-2
	.byte	108
	.byte	108
	.byte	108
	.byte	108
	.byte	108
	.byte	0
	.byte	-2
	.byte	102
	.byte	48
	.byte	24
	.byte	48
	.byte	102
	.byte	-2
	.byte	0
	.byte	0
	.byte	0
	.byte	126
	.byte	-52
	.byte	-52
	.byte	-52
	.byte	120
	.byte	0
	.byte	0
	.byte	102
	.byte	102
	.byte	102
	.byte	102
	.byte	124
	.byte	96
	.byte	-64
	.byte	0
	.byte	118
	.byte	-36
	.byte	24
	.byte	24
	.byte	24
	.byte	24
	.byte	0
	.byte	-4
	.byte	48
	.byte	120
	.byte	-52
	.byte	-52
	.byte	120
	.byte	48
	.byte	-4
	.byte	56
	.byte	108
	.byte	-58
	.byte	-2
	.byte	-58
	.byte	108
	.byte	56
	.byte	0
	.byte	56
	.byte	108
	.byte	-58
	.byte	-58
	.byte	108
	.byte	108
	.byte	-18
	.byte	0
	.byte	28
	.byte	48
	.byte	24
	.byte	124
	.byte	-52
	.byte	-52
	.byte	120
	.byte	0
	.byte	0
	.byte	0
	.byte	126
	.byte	-37
	.byte	-37
	.byte	126
	.byte	0
	.byte	0
	.byte	6
	.byte	12
	.byte	126
	.byte	-37
	.byte	-37
	.byte	126
	.byte	96
	.byte	-64
	.byte	60
	.byte	96
	.byte	-64
	.byte	-4
	.byte	-64
	.byte	96
	.byte	60
	.byte	0
	.byte	120
	.byte	-52
	.byte	-52
	.byte	-52
	.byte	-52
	.byte	-52
	.byte	-52
	.byte	0
	.byte	0
	.byte	-4
	.byte	0
	.byte	-4
	.byte	0
	.byte	-4
	.byte	0
	.byte	0
	.byte	48
	.byte	48
	.byte	-4
	.byte	48
	.byte	48
	.byte	0
	.byte	-4
	.byte	0
	.byte	96
	.byte	48
	.byte	24
	.byte	48
	.byte	96
	.byte	0
	.byte	-4
	.byte	0
	.byte	24
	.byte	48
	.byte	96
	.byte	48
	.byte	24
	.byte	0
	.byte	-4
	.byte	0
	.byte	14
	.byte	27
	.byte	27
	.byte	24
	.byte	24
	.byte	24
	.byte	24
	.byte	24
	.byte	24
	.byte	24
	.byte	24
	.byte	24
	.byte	24
	.byte	-40
	.byte	-40
	.byte	112
	.byte	48
	.byte	48
	.byte	0
	.byte	-4
	.byte	0
	.byte	48
	.byte	48
	.byte	0
	.byte	0
	.byte	114
	.byte	-100
	.byte	0
	.byte	114
	.byte	-100
	.byte	0
	.byte	0
	.byte	56
	.byte	108
	.byte	108
	.byte	56
	.byte	0
	.byte	0
	.byte	0
	.byte	0
	.byte	0
	.byte	0
	.byte	0
	.byte	24
	.byte	24
	.byte	0
	.byte	0
	.byte	0
	.byte	0
	.byte	0
	.byte	0
	.byte	0
	.byte	24
	.byte	0
	.byte	0
	.byte	0
	.byte	15
	.byte	12
	.byte	12
	.byte	12
	.byte	-20
	.byte	108
	.byte	60
	.byte	28
	.byte	120
	.byte	108
	.byte	108
	.byte	108
	.byte	108
	.byte	0
	.byte	0
	.byte	0
	.byte	120
	.byte	12
	.byte	56
	.byte	96
	.byte	124
	.byte	0
	.byte	0
	.byte	0
	.byte	0
	.byte	0
	.byte	60
	.byte	60
	.byte	60
	.byte	60
	.byte	0
	.byte	0
	.byte	0
	.byte	0
	.byte	0
	.byte	0
	.byte	0
	.byte	0
	.byte	0
	.byte	0
	.comm	tile_x,2,2
	.comm	tile_y,2,2
	.comm	phase,2,2
	.global	speed
	.align	1
	.type	speed, %object
	.size	speed, 2
speed:
	.short	1
	.global	interval_note
	.align	1
	.type	interval_note, %object
	.size	interval_note, 2
interval_note:
	.short	32
	.global	pattern_note
	.bss
	.align	1
	.type	pattern_note, %object
	.size	pattern_note, 2
pattern_note:
	.space	2
	.global	limit_time
	.data
	.align	1
	.type	limit_time, %object
	.size	limit_time, 2
limit_time:
	.short	3000
	.comm	best,2,2
	.comm	cool,2,2
	.comm	good,2,2
	.comm	miss,2,2
	.comm	is_clear,2,2
	.text
	.align	2
	.global	main
	.type	main, %function
main:
	@ Function supports interworking.
	@ args = 0, pretend = 0, frame = 8
	@ frame_needed = 1, uses_anonymous_args = 0
	stmfd	sp!, {fp, lr}
	add	fp, sp, #4
	sub	sp, sp, #8
	mov	r3, #67108864
	str	r3, [fp, #-8]
	ldr	r3, [fp, #-8]
	ldr	r2, .L8
	strh	r2, [r3]	@ movhi
	mov	r3, #0
	strh	r3, [fp, #-10]	@ movhi
	mov	r3, #0
	strh	r3, [fp, #-12]	@ movhi
	ldr	r3, .L8+4
	mvn	r2, #63
	strh	r2, [r3]	@ movhi
	ldr	r3, .L8+8
	mvn	r2, #63
	strh	r2, [r3]	@ movhi
	ldr	r3, .L8+12
	mvn	r2, #40
	strh	r2, [r3]	@ movhi
	ldr	r3, .L8+16
	mov	r2, #0
	strh	r2, [r3]	@ movhi
	ldr	r3, .L8+20
	mov	r2, #128
	strh	r2, [r3]	@ movhi
	ldr	r3, .L8+24
	mov	r2, #132
	strh	r2, [r3]	@ movhi
	ldr	r3, .L8+28
	mov	r2, #132
	strh	r2, [r3]	@ movhi
	ldr	r3, .L8+32
	mov	r2, #4
	strh	r2, [r3]	@ movhi
	ldr	r3, .L8+36
	mov	r2, #0
	strh	r2, [r3]	@ movhi
.L7:
	ldr	r3, .L8+36
	ldrh	r3, [r3]
	cmp	r3, #0
	bne	.L2
	bl	begin_start
	ldr	r3, .L8+36
	mov	r2, #1
	strh	r2, [r3]	@ movhi
.L2:
	ldr	r3, .L8+36
	ldrh	r3, [r3]
	cmp	r3, #1
	bne	.L3
	bl	begin_tutorial
	ldr	r3, .L8+36
	mov	r2, #2
	strh	r2, [r3]	@ movhi
.L3:
	ldr	r3, .L8+36
	ldrh	r3, [r3]
	cmp	r3, #2
	bne	.L4
	bl	begin_op
	ldr	r3, .L8+36
	mov	r2, #3
	strh	r2, [r3]	@ movhi
.L4:
	ldr	r3, .L8+36
	ldrh	r3, [r3]
	cmp	r3, #3
	bne	.L5
	bl	begin_game
	ldr	r3, .L8+36
	mov	r2, #4
	strh	r2, [r3]	@ movhi
.L5:
	ldr	r3, .L8+36
	ldrh	r3, [r3]
	cmp	r3, #4
	bne	.L6
	bl	begin_end
.L6:
	b	.L7
.L9:
	.align	2
.L8:
	.word	3843
	.word	67109120
	.word	67109124
	.word	67109128
	.word	67109132
	.word	67109122
	.word	67109126
	.word	67109130
	.word	67109134
	.word	phase
	.size	main, .-main
	.align	2
	.global	draw_point
	.type	draw_point, %function
draw_point:
	@ Function supports interworking.
	@ args = 0, pretend = 0, frame = 16
	@ frame_needed = 1, uses_anonymous_args = 0
	@ link register save eliminated.
	str	fp, [sp, #-4]!
	add	fp, sp, #0
	sub	sp, sp, #20
	mov	r3, r2
	strh	r0, [fp, #-14]	@ movhi
	strh	r1, [fp, #-16]	@ movhi
	strh	r3, [fp, #-18]	@ movhi
	mov	r3, #100663296
	str	r3, [fp, #-8]
	ldrh	r1, [fp, #-14]
	ldrh	r2, [fp, #-16]
	mov	r3, r2
	mov	r3, r3, asl #4
	rsb	r3, r2, r3
	mov	r3, r3, asl #4
	add	r3, r1, r3
	mov	r3, r3, asl #1
	ldr	r2, [fp, #-8]
	add	r3, r2, r3
	str	r3, [fp, #-8]
	ldr	r3, [fp, #-8]
	ldrh	r2, [fp, #-18]	@ movhi
	strh	r2, [r3]	@ movhi
	sub	sp, fp, #0
	@ sp needed
	ldr	fp, [sp], #4
	bx	lr
	.size	draw_point, .-draw_point
	.align	2
	.global	paint_all
	.type	paint_all, %function
paint_all:
	@ Function supports interworking.
	@ args = 0, pretend = 0, frame = 16
	@ frame_needed = 1, uses_anonymous_args = 0
	stmfd	sp!, {fp, lr}
	add	fp, sp, #4
	sub	sp, sp, #16
	mov	r3, r0
	strh	r3, [fp, #-14]	@ movhi
	mov	r3, #0
	str	r3, [fp, #-8]
	b	.L12
.L15:
	mov	r3, #0
	str	r3, [fp, #-12]
	b	.L13
.L14:
	ldr	r3, [fp, #-8]
	mov	r3, r3, asl #16
	mov	r1, r3, lsr #16
	ldr	r3, [fp, #-12]
	mov	r3, r3, asl #16
	mov	r2, r3, lsr #16
	ldrh	r3, [fp, #-14]
	mov	r0, r1
	mov	r1, r2
	mov	r2, r3
	bl	draw_point
	ldr	r3, [fp, #-12]
	add	r3, r3, #1
	str	r3, [fp, #-12]
.L13:
	ldr	r3, [fp, #-12]
	cmp	r3, #159
	ble	.L14
	ldr	r3, [fp, #-8]
	add	r3, r3, #1
	str	r3, [fp, #-8]
.L12:
	ldr	r3, [fp, #-8]
	cmp	r3, #239
	ble	.L15
	sub	sp, fp, #4
	@ sp needed
	ldmfd	sp!, {fp, lr}
	bx	lr
	.size	paint_all, .-paint_all
	.align	2
	.global	paint_half
	.type	paint_half, %function
paint_half:
	@ Function supports interworking.
	@ args = 0, pretend = 0, frame = 16
	@ frame_needed = 1, uses_anonymous_args = 0
	stmfd	sp!, {fp, lr}
	add	fp, sp, #4
	sub	sp, sp, #16
	mov	r3, r0
	strh	r3, [fp, #-14]	@ movhi
	mov	r3, #0
	str	r3, [fp, #-8]
	b	.L17
.L20:
	mov	r3, #0
	str	r3, [fp, #-12]
	b	.L18
.L19:
	ldr	r3, [fp, #-8]
	mov	r3, r3, asl #16
	mov	r1, r3, lsr #16
	ldr	r3, [fp, #-12]
	mov	r3, r3, asl #16
	mov	r2, r3, lsr #16
	ldrh	r3, [fp, #-14]
	mov	r0, r1
	mov	r1, r2
	mov	r2, r3
	bl	draw_point
	ldr	r3, [fp, #-12]
	add	r3, r3, #1
	str	r3, [fp, #-12]
.L18:
	ldr	r3, [fp, #-12]
	cmp	r3, #79
	ble	.L19
	ldr	r3, [fp, #-8]
	add	r3, r3, #1
	str	r3, [fp, #-8]
.L17:
	ldr	r3, [fp, #-8]
	cmp	r3, #239
	ble	.L20
	sub	sp, fp, #4
	@ sp needed
	ldmfd	sp!, {fp, lr}
	bx	lr
	.size	paint_half, .-paint_half
	.align	2
	.global	draw_line
	.type	draw_line, %function
draw_line:
	@ Function supports interworking.
	@ args = 0, pretend = 0, frame = 24
	@ frame_needed = 1, uses_anonymous_args = 0
	stmfd	sp!, {fp, lr}
	add	fp, sp, #4
	sub	sp, sp, #24
	str	r0, [fp, #-16]
	str	r1, [fp, #-20]
	mov	r3, r2
	strh	r3, [fp, #-22]	@ movhi
	ldrh	r3, [fp, #-16]
	mov	r2, r3
	ldrh	r3, [fp, #-20]
	add	r3, r2, r3
	mov	r2, r3, lsr #31
	add	r3, r2, r3
	mov	r3, r3, asr #1
	mov	r3, r3, asl #16
	mov	r3, r3, lsr #16
	strh	r3, [fp, #-8]	@ movhi
	ldrh	r3, [fp, #-14]
	mov	r2, r3
	ldrh	r3, [fp, #-18]
	add	r3, r2, r3
	mov	r2, r3, lsr #31
	add	r3, r2, r3
	mov	r3, r3, asr #1
	mov	r3, r3, asl #16
	mov	r3, r3, lsr #16
	strh	r3, [fp, #-6]	@ movhi
	ldrh	r1, [fp, #-8]
	ldrh	r2, [fp, #-6]
	ldrh	r3, [fp, #-22]
	mov	r0, r1
	mov	r1, r2
	mov	r2, r3
	bl	draw_point
	ldrh	r3, [fp, #-8]
	mov	r2, r3
	ldrh	r3, [fp, #-16]
	rsb	r3, r3, r2
	cmp	r3, #0
	ble	.L21
	ldrh	r3, [fp, #-22]
	ldr	r0, [fp, #-16]
	ldr	r1, [fp, #-8]
	mov	r2, r3
	bl	draw_line
	ldrh	r3, [fp, #-22]
	ldr	r0, [fp, #-8]
	ldr	r1, [fp, #-20]
	mov	r2, r3
	bl	draw_line
.L21:
	sub	sp, fp, #4
	@ sp needed
	ldmfd	sp!, {fp, lr}
	bx	lr
	.size	draw_line, .-draw_line
	.align	2
	.global	locate
	.type	locate, %function
locate:
	@ Function supports interworking.
	@ args = 0, pretend = 0, frame = 8
	@ frame_needed = 1, uses_anonymous_args = 0
	@ link register save eliminated.
	str	fp, [sp, #-4]!
	add	fp, sp, #0
	sub	sp, sp, #12
	mov	r2, r0
	mov	r3, r1
	strh	r2, [fp, #-6]	@ movhi
	strh	r3, [fp, #-8]	@ movhi
	ldrh	r3, [fp, #-6]	@ movhi
	mov	r3, r3, asl #3
	mov	r3, r3, asl #16
	mov	r3, r3, lsr #16
	ldr	r2, .L25
	strh	r3, [r2]	@ movhi
	ldrh	r3, [fp, #-8]	@ movhi
	mov	r3, r3, asl #3
	mov	r3, r3, asl #16
	mov	r3, r3, lsr #16
	ldr	r2, .L25+4
	strh	r3, [r2]	@ movhi
	sub	sp, fp, #0
	@ sp needed
	ldr	fp, [sp], #4
	bx	lr
.L26:
	.align	2
.L25:
	.word	tile_x
	.word	tile_y
	.size	locate, .-locate
	.align	2
	.global	print_ascii
	.type	print_ascii, %function
print_ascii:
	@ Function supports interworking.
	@ args = 0, pretend = 0, frame = 16
	@ frame_needed = 1, uses_anonymous_args = 0
	stmfd	sp!, {fp, lr}
	add	fp, sp, #4
	sub	sp, sp, #16
	mov	r2, r0
	mov	r3, r1
	strb	r2, [fp, #-13]
	strh	r3, [fp, #-16]	@ movhi
	mov	r3, #0
	strh	r3, [fp, #-6]	@ movhi
	mov	r3, #0
	strh	r3, [fp, #-8]	@ movhi
	mov	r3, #0
	strh	r3, [fp, #-8]	@ movhi
	b	.L28
.L33:
	mvn	r3, #127
	strb	r3, [fp, #-9]
	mov	r3, #0
	strh	r3, [fp, #-6]	@ movhi
	b	.L29
.L32:
	ldrb	r2, [fp, #-13]	@ zero_extendqisi2
	ldrh	r3, [fp, #-8]
	ldr	r1, .L34
	mov	r2, r2, asl #3
	add	r3, r2, r3
	add	r3, r1, r3
	ldrb	r2, [r3]	@ zero_extendqisi2
	ldrb	r3, [fp, #-9]
	and	r3, r3, r2
	and	r3, r3, #255
	ldrb	r2, [fp, #-9]	@ zero_extendqisi2
	cmp	r2, r3
	bne	.L30
	ldr	r3, .L34+4
	ldrh	r2, [r3]
	ldrh	r3, [fp, #-6]	@ movhi
	add	r3, r2, r3
	mov	r3, r3, asl #16
	mov	r1, r3, lsr #16
	ldr	r3, .L34+8
	ldrh	r2, [r3]
	ldrh	r3, [fp, #-8]	@ movhi
	add	r3, r2, r3
	mov	r3, r3, asl #16
	mov	r2, r3, lsr #16
	ldrh	r3, [fp, #-16]
	mov	r0, r1
	mov	r1, r2
	mov	r2, r3
	bl	draw_point
	b	.L31
.L30:
	ldr	r3, .L34+4
	ldrh	r2, [r3]
	ldrh	r3, [fp, #-6]	@ movhi
	add	r3, r2, r3
	mov	r3, r3, asl #16
	mov	r1, r3, lsr #16
	ldr	r3, .L34+8
	ldrh	r2, [r3]
	ldrh	r3, [fp, #-8]	@ movhi
	add	r3, r2, r3
	mov	r3, r3, asl #16
	mov	r3, r3, lsr #16
	mov	r0, r1
	mov	r1, r3
	mov	r2, #0
	bl	draw_point
.L31:
	ldrb	r3, [fp, #-9]	@ zero_extendqisi2
	mov	r3, r3, lsr #1
	strb	r3, [fp, #-9]
	ldrh	r3, [fp, #-6]
	add	r3, r3, #1
	strh	r3, [fp, #-6]	@ movhi
.L29:
	ldrh	r3, [fp, #-6]
	cmp	r3, #7
	bls	.L32
	ldrh	r3, [fp, #-8]
	add	r3, r3, #1
	strh	r3, [fp, #-8]	@ movhi
.L28:
	ldrh	r3, [fp, #-8]
	cmp	r3, #7
	bls	.L33
	sub	sp, fp, #4
	@ sp needed
	ldmfd	sp!, {fp, lr}
	bx	lr
.L35:
	.align	2
.L34:
	.word	char8x8
	.word	tile_x
	.word	tile_y
	.size	print_ascii, .-print_ascii
	.align	2
	.global	prints
	.type	prints, %function
prints:
	@ Function supports interworking.
	@ args = 0, pretend = 0, frame = 16
	@ frame_needed = 1, uses_anonymous_args = 0
	stmfd	sp!, {fp, lr}
	add	fp, sp, #4
	sub	sp, sp, #16
	str	r0, [fp, #-16]
	mov	r3, r1
	strh	r3, [fp, #-18]	@ movhi
	ldr	r3, .L39
	ldrh	r3, [r3]	@ movhi
	strh	r3, [fp, #-6]	@ movhi
	b	.L37
.L38:
	ldr	r3, [fp, #-16]
	ldrb	r2, [r3]	@ zero_extendqisi2
	ldrh	r3, [fp, #-18]
	mov	r0, r2
	mov	r1, r3
	bl	print_ascii
	ldr	r3, .L39
	ldrh	r3, [r3]
	add	r3, r3, #8
	mov	r3, r3, asl #16
	mov	r3, r3, lsr #16
	ldr	r2, .L39
	strh	r3, [r2]	@ movhi
	ldr	r3, [fp, #-16]
	add	r3, r3, #1
	str	r3, [fp, #-16]
.L37:
	ldr	r3, [fp, #-16]
	ldrb	r3, [r3]	@ zero_extendqisi2
	cmp	r3, #0
	bne	.L38
	ldr	r2, .L39
	ldrh	r3, [fp, #-6]	@ movhi
	strh	r3, [r2]	@ movhi
	sub	sp, fp, #4
	@ sp needed
	ldmfd	sp!, {fp, lr}
	bx	lr
.L40:
	.align	2
.L39:
	.word	tile_x
	.size	prints, .-prints
	.align	2
	.global	print_cursor
	.type	print_cursor, %function
print_cursor:
	@ Function supports interworking.
	@ args = 0, pretend = 0, frame = 8
	@ frame_needed = 1, uses_anonymous_args = 0
	stmfd	sp!, {fp, lr}
	add	fp, sp, #4
	sub	sp, sp, #8
	ldr	r3, .L44
	ldrh	r3, [r3]	@ movhi
	strh	r3, [fp, #-8]	@ movhi
	ldr	r3, .L44+4
	ldrh	r3, [r3]
	add	r3, r3, #7
	strh	r3, [fp, #-10]	@ movhi
	mov	r3, #0
	strh	r3, [fp, #-6]	@ movhi
	b	.L42
.L43:
	ldrh	r2, [fp, #-8]	@ movhi
	ldrh	r3, [fp, #-6]	@ movhi
	add	r3, r2, r3
	mov	r3, r3, asl #16
	mov	r2, r3, lsr #16
	ldrh	r3, [fp, #-10]
	mov	r0, r2
	mov	r1, r3
	mov	r2, #31
	bl	draw_point
	ldrh	r3, [fp, #-6]
	add	r3, r3, #1
	strh	r3, [fp, #-6]	@ movhi
.L42:
	ldrh	r3, [fp, #-6]
	cmp	r3, #7
	bls	.L43
	sub	sp, fp, #4
	@ sp needed
	ldmfd	sp!, {fp, lr}
	bx	lr
.L45:
	.align	2
.L44:
	.word	tile_x
	.word	tile_y
	.size	print_cursor, .-print_cursor
	.align	2
	.global	delete_cursor
	.type	delete_cursor, %function
delete_cursor:
	@ Function supports interworking.
	@ args = 0, pretend = 0, frame = 8
	@ frame_needed = 1, uses_anonymous_args = 0
	stmfd	sp!, {fp, lr}
	add	fp, sp, #4
	sub	sp, sp, #8
	ldr	r3, .L49
	ldrh	r3, [r3]	@ movhi
	strh	r3, [fp, #-8]	@ movhi
	ldr	r3, .L49+4
	ldrh	r3, [r3]
	add	r3, r3, #7
	strh	r3, [fp, #-10]	@ movhi
	mov	r3, #0
	strh	r3, [fp, #-6]	@ movhi
	b	.L47
.L48:
	ldrh	r2, [fp, #-8]	@ movhi
	ldrh	r3, [fp, #-6]	@ movhi
	add	r3, r2, r3
	mov	r3, r3, asl #16
	mov	r2, r3, lsr #16
	ldrh	r3, [fp, #-10]
	mov	r0, r2
	mov	r1, r3
	mov	r2, #0
	bl	draw_point
	ldrh	r3, [fp, #-6]
	add	r3, r3, #1
	strh	r3, [fp, #-6]	@ movhi
.L47:
	ldrh	r3, [fp, #-6]
	cmp	r3, #7
	bls	.L48
	sub	sp, fp, #4
	@ sp needed
	ldmfd	sp!, {fp, lr}
	bx	lr
.L50:
	.align	2
.L49:
	.word	tile_x
	.word	tile_y
	.size	delete_cursor, .-delete_cursor
	.align	2
	.global	div
	.type	div, %function
div:
	@ Function supports interworking.
	@ args = 0, pretend = 0, frame = 16
	@ frame_needed = 1, uses_anonymous_args = 0
	@ link register save eliminated.
	str	fp, [sp, #-4]!
	add	fp, sp, #0
	sub	sp, sp, #20
	mov	r2, r0
	mov	r3, r1
	strh	r2, [fp, #-14]	@ movhi
	strh	r3, [fp, #-16]	@ movhi
	mov	r3, #0
	strh	r3, [fp, #-6]	@ movhi
.L55:
	ldrh	r2, [fp, #-14]
	ldrh	r3, [fp, #-16]
	cmp	r2, r3
	bcc	.L52
	ldrh	r2, [fp, #-14]	@ movhi
	ldrh	r3, [fp, #-16]	@ movhi
	rsb	r3, r3, r2
	strh	r3, [fp, #-14]	@ movhi
	ldrh	r3, [fp, #-6]
	add	r3, r3, #1
	strh	r3, [fp, #-6]	@ movhi
	b	.L57
.L52:
	b	.L58
.L57:
	b	.L55
.L58:
	ldrh	r3, [fp, #-6]
	mov	r0, r3
	sub	sp, fp, #0
	@ sp needed
	ldr	fp, [sp], #4
	bx	lr
	.size	div, .-div
	.align	2
	.global	mod
	.type	mod, %function
mod:
	@ Function supports interworking.
	@ args = 0, pretend = 0, frame = 16
	@ frame_needed = 1, uses_anonymous_args = 0
	@ link register save eliminated.
	str	fp, [sp, #-4]!
	add	fp, sp, #0
	sub	sp, sp, #20
	mov	r2, r0
	mov	r3, r1
	strh	r2, [fp, #-14]	@ movhi
	strh	r3, [fp, #-16]	@ movhi
	mov	r3, #0
	strh	r3, [fp, #-6]	@ movhi
.L63:
	ldrh	r2, [fp, #-14]
	ldrh	r3, [fp, #-16]
	cmp	r2, r3
	bcc	.L60
	ldrh	r2, [fp, #-14]	@ movhi
	ldrh	r3, [fp, #-16]	@ movhi
	rsb	r3, r3, r2
	strh	r3, [fp, #-14]	@ movhi
	ldrh	r3, [fp, #-6]
	add	r3, r3, #1
	strh	r3, [fp, #-6]	@ movhi
	b	.L65
.L60:
	b	.L66
.L65:
	b	.L63
.L66:
	ldrh	r3, [fp, #-14]
	mov	r0, r3
	sub	sp, fp, #0
	@ sp needed
	ldr	fp, [sp], #4
	bx	lr
	.size	mod, .-mod
	.section	.rodata
	.align	2
.LC0:
	.ascii	"0123456789\000"
	.text
	.align	2
	.global	num_to_string
	.type	num_to_string, %function
num_to_string:
	@ Function supports interworking.
	@ args = 0, pretend = 0, frame = 32
	@ frame_needed = 1, uses_anonymous_args = 0
	stmfd	sp!, {r4, r5, r6, r7, r8, fp, lr}
	add	fp, sp, #24
	sub	sp, sp, #36
	mov	r3, r2
	strh	r0, [fp, #-54]	@ movhi
	strh	r1, [fp, #-56]	@ movhi
	strh	r3, [fp, #-58]	@ movhi
	mov	r3, sp
	mov	r8, r3
	ldr	r2, .L70
	sub	r3, fp, #52
	ldmia	r2, {r0, r1, r2}
	stmia	r3!, {r0, r1}
	strh	r2, [r3]	@ movhi
	add	r3, r3, #2
	mov	r2, r2, lsr #16
	strb	r2, [r3]
	ldrh	r3, [fp, #-56]
	add	r1, r3, #1
	sub	r3, r1, #1
	str	r3, [fp, #-36]
	mov	r3, r1
	mov	r2, r3
	mov	r3, #0
	mov	r7, r3, asl #3
	orr	r7, r7, r2, lsr #29
	mov	r6, r2, asl #3
	mov	r3, r1
	mov	r2, r3
	mov	r3, #0
	mov	r5, r3, asl #3
	orr	r5, r5, r2, lsr #29
	mov	r4, r2, asl #3
	mov	r3, r1
	add	r3, r3, #7
	mov	r3, r3, lsr #3
	mov	r3, r3, asl #3
	sub	sp, sp, r3
	mov	r3, sp
	add	r3, r3, #0
	str	r3, [fp, #-40]
	ldrh	r3, [fp, #-56]
	ldr	r2, [fp, #-40]
	mov	r1, #0
	strb	r1, [r2, r3]
	ldrh	r3, [fp, #-56]
	sub	r3, r3, #1
	str	r3, [fp, #-32]
	b	.L68
.L69:
	ldrh	r3, [fp, #-54]
	mov	r0, r3
	mov	r1, #10
	bl	mod
	mov	r3, r0
	sub	r2, fp, #28
	add	r3, r2, r3
	ldrb	r1, [r3, #-24]	@ zero_extendqisi2
	ldr	r2, [fp, #-40]
	ldr	r3, [fp, #-32]
	add	r3, r2, r3
	mov	r2, r1
	strb	r2, [r3]
	ldrh	r3, [fp, #-54]
	mov	r0, r3
	mov	r1, #10
	bl	div
	mov	r3, r0
	strh	r3, [fp, #-54]	@ movhi
	ldr	r3, [fp, #-32]
	sub	r3, r3, #1
	str	r3, [fp, #-32]
.L68:
	ldr	r3, [fp, #-32]
	cmp	r3, #0
	bge	.L69
	ldr	r2, [fp, #-40]
	ldrh	r3, [fp, #-58]
	mov	r0, r2
	mov	r1, r3
	bl	prints
	mov	sp, r8
	sub	sp, fp, #24
	@ sp needed
	ldmfd	sp!, {r4, r5, r6, r7, r8, fp, lr}
	bx	lr
.L71:
	.align	2
.L70:
	.word	.LC0
	.size	num_to_string, .-num_to_string
	.align	2
	.global	delay
	.type	delay, %function
delay:
	@ Function supports interworking.
	@ args = 0, pretend = 0, frame = 16
	@ frame_needed = 1, uses_anonymous_args = 0
	stmfd	sp!, {fp, lr}
	add	fp, sp, #4
	sub	sp, sp, #16
	mov	r3, r0
	strh	r3, [fp, #-14]	@ movhi
	mov	r3, #0
	strh	r3, [fp, #-6]	@ movhi
	b	.L73
.L74:
	mov	r0, #25
	mov	r1, #19
	bl	locate
	ldrh	r3, [fp, #-6]
	mov	r0, r3
	mov	r1, #5
	mov	r2, #0
	bl	num_to_string
	ldrh	r3, [fp, #-6]
	add	r3, r3, #1
	strh	r3, [fp, #-6]	@ movhi
.L73:
	ldrh	r2, [fp, #-6]
	ldrh	r3, [fp, #-14]
	cmp	r2, r3
	bcc	.L74
	sub	sp, fp, #4
	@ sp needed
	ldmfd	sp!, {fp, lr}
	bx	lr
	.size	delay, .-delay
	.align	2
	.global	draw_note
	.type	draw_note, %function
draw_note:
	@ Function supports interworking.
	@ args = 0, pretend = 0, frame = 24
	@ frame_needed = 1, uses_anonymous_args = 0
	stmfd	sp!, {fp, lr}
	add	fp, sp, #4
	sub	sp, sp, #24
	str	r0, [fp, #-24]
	mov	r3, r1
	strh	r3, [fp, #-26]	@ movhi
	mov	r3, #19
	strh	r3, [fp, #-18]	@ movhi
	mov	r3, #1
	strh	r3, [fp, #-20]	@ movhi
	ldrh	r3, [fp, #-26]
	cmp	r3, #3
	ldrls	pc, [pc, r3, asl #2]
	b	.L76
.L78:
	.word	.L77
	.word	.L79
	.word	.L80
	.word	.L81
.L77:
	mvn	r3, #32768
	strh	r3, [fp, #-14]	@ movhi
	ldr	r3, .L88
	strh	r3, [fp, #-16]	@ movhi
	b	.L76
.L79:
	ldr	r3, .L88
	strh	r3, [fp, #-14]	@ movhi
	mvn	r3, #32768
	strh	r3, [fp, #-16]	@ movhi
	b	.L76
.L80:
	mvn	r3, #32768
	strh	r3, [fp, #-14]	@ movhi
	ldr	r3, .L88
	strh	r3, [fp, #-16]	@ movhi
	b	.L76
.L81:
	ldr	r3, .L88
	strh	r3, [fp, #-14]	@ movhi
	mvn	r3, #32768
	strh	r3, [fp, #-16]	@ movhi
	mov	r0, r0	@ nop
.L76:
	mov	r3, #0
	str	r3, [fp, #-8]
	b	.L82
.L83:
	ldrh	r2, [fp, #-24]
	ldr	r3, [fp, #-8]
	mov	r3, r3, asl #16
	mov	r3, r3, lsr #16
	add	r3, r2, r3
	mov	r3, r3, asl #16
	mov	r1, r3, lsr #16
	ldrh	r2, [fp, #-22]
	ldrh	r3, [fp, #-14]
	mov	r0, r1
	mov	r1, r2
	mov	r2, r3
	bl	draw_point
	ldrh	r2, [fp, #-24]
	ldr	r3, [fp, #-8]
	mov	r3, r3, asl #16
	mov	r3, r3, lsr #16
	rsb	r3, r3, r2
	mov	r3, r3, asl #16
	mov	r1, r3, lsr #16
	ldrh	r2, [fp, #-22]
	ldrh	r3, [fp, #-14]
	mov	r0, r1
	mov	r1, r2
	mov	r2, r3
	bl	draw_point
	ldr	r3, [fp, #-8]
	add	r3, r3, #1
	str	r3, [fp, #-8]
.L82:
	ldrh	r2, [fp, #-18]
	ldr	r3, [fp, #-8]
	cmp	r2, r3
	bgt	.L83
	mov	r3, #1
	str	r3, [fp, #-8]
	b	.L84
.L87:
	mov	r3, #0
	str	r3, [fp, #-12]
	b	.L85
.L86:
	ldrh	r2, [fp, #-24]
	ldr	r3, [fp, #-12]
	mov	r3, r3, asl #16
	mov	r3, r3, lsr #16
	add	r3, r2, r3
	mov	r3, r3, asl #16
	mov	r1, r3, lsr #16
	ldrh	r2, [fp, #-22]
	ldr	r3, [fp, #-8]
	mov	r3, r3, asl #16
	mov	r3, r3, lsr #16
	add	r3, r2, r3
	mov	r3, r3, asl #16
	mov	r2, r3, lsr #16
	ldrh	r3, [fp, #-16]
	mov	r0, r1
	mov	r1, r2
	mov	r2, r3
	bl	draw_point
	ldrh	r2, [fp, #-24]
	ldr	r3, [fp, #-12]
	mov	r3, r3, asl #16
	mov	r3, r3, lsr #16
	rsb	r3, r3, r2
	mov	r3, r3, asl #16
	mov	r1, r3, lsr #16
	ldrh	r2, [fp, #-22]
	ldr	r3, [fp, #-8]
	mov	r3, r3, asl #16
	mov	r3, r3, lsr #16
	add	r3, r2, r3
	mov	r3, r3, asl #16
	mov	r2, r3, lsr #16
	ldrh	r3, [fp, #-16]
	mov	r0, r1
	mov	r1, r2
	mov	r2, r3
	bl	draw_point
	ldrh	r2, [fp, #-24]
	ldr	r3, [fp, #-12]
	mov	r3, r3, asl #16
	mov	r3, r3, lsr #16
	add	r3, r2, r3
	mov	r3, r3, asl #16
	mov	r1, r3, lsr #16
	ldrh	r2, [fp, #-22]
	ldr	r3, [fp, #-8]
	mov	r3, r3, asl #16
	mov	r3, r3, lsr #16
	rsb	r3, r3, r2
	mov	r3, r3, asl #16
	mov	r2, r3, lsr #16
	ldrh	r3, [fp, #-16]
	mov	r0, r1
	mov	r1, r2
	mov	r2, r3
	bl	draw_point
	ldrh	r2, [fp, #-24]
	ldr	r3, [fp, #-12]
	mov	r3, r3, asl #16
	mov	r3, r3, lsr #16
	rsb	r3, r3, r2
	mov	r3, r3, asl #16
	mov	r1, r3, lsr #16
	ldrh	r2, [fp, #-22]
	ldr	r3, [fp, #-8]
	mov	r3, r3, asl #16
	mov	r3, r3, lsr #16
	rsb	r3, r3, r2
	mov	r3, r3, asl #16
	mov	r2, r3, lsr #16
	ldrh	r3, [fp, #-16]
	mov	r0, r1
	mov	r1, r2
	mov	r2, r3
	bl	draw_point
	ldr	r3, [fp, #-12]
	add	r3, r3, #1
	str	r3, [fp, #-12]
.L85:
	ldrh	r2, [fp, #-18]
	ldr	r3, [fp, #-12]
	cmp	r2, r3
	bgt	.L86
	ldr	r3, [fp, #-8]
	add	r3, r3, #1
	str	r3, [fp, #-8]
.L84:
	ldrh	r2, [fp, #-20]
	ldr	r3, [fp, #-8]
	cmp	r2, r3
	bge	.L87
	sub	sp, fp, #4
	@ sp needed
	ldmfd	sp!, {fp, lr}
	bx	lr
.L89:
	.align	2
.L88:
	.word	32736
	.size	draw_note, .-draw_note
	.align	2
	.global	delete_note
	.type	delete_note, %function
delete_note:
	@ Function supports interworking.
	@ args = 0, pretend = 0, frame = 24
	@ frame_needed = 1, uses_anonymous_args = 0
	stmfd	sp!, {fp, lr}
	add	fp, sp, #4
	sub	sp, sp, #24
	str	r0, [fp, #-24]
	mov	r3, r1
	strh	r3, [fp, #-26]	@ movhi
	mov	r3, #19
	strh	r3, [fp, #-14]	@ movhi
	mov	r3, #1
	strh	r3, [fp, #-16]	@ movhi
	mov	r3, #0
	strh	r3, [fp, #-18]	@ movhi
	mov	r3, #0
	strh	r3, [fp, #-20]	@ movhi
	mov	r3, #0
	str	r3, [fp, #-8]
	b	.L91
.L92:
	ldrh	r2, [fp, #-24]
	ldr	r3, [fp, #-8]
	mov	r3, r3, asl #16
	mov	r3, r3, lsr #16
	add	r3, r2, r3
	mov	r3, r3, asl #16
	mov	r1, r3, lsr #16
	ldrh	r2, [fp, #-22]
	ldrh	r3, [fp, #-18]
	mov	r0, r1
	mov	r1, r2
	mov	r2, r3
	bl	draw_point
	ldrh	r2, [fp, #-24]
	ldr	r3, [fp, #-8]
	mov	r3, r3, asl #16
	mov	r3, r3, lsr #16
	rsb	r3, r3, r2
	mov	r3, r3, asl #16
	mov	r1, r3, lsr #16
	ldrh	r2, [fp, #-22]
	ldrh	r3, [fp, #-18]
	mov	r0, r1
	mov	r1, r2
	mov	r2, r3
	bl	draw_point
	ldr	r3, [fp, #-8]
	add	r3, r3, #1
	str	r3, [fp, #-8]
.L91:
	ldrh	r2, [fp, #-14]
	ldr	r3, [fp, #-8]
	cmp	r2, r3
	bgt	.L92
	mov	r3, #1
	str	r3, [fp, #-8]
	b	.L93
.L96:
	mov	r3, #0
	str	r3, [fp, #-12]
	b	.L94
.L95:
	ldrh	r2, [fp, #-24]
	ldr	r3, [fp, #-12]
	mov	r3, r3, asl #16
	mov	r3, r3, lsr #16
	add	r3, r2, r3
	mov	r3, r3, asl #16
	mov	r1, r3, lsr #16
	ldrh	r2, [fp, #-22]
	ldr	r3, [fp, #-8]
	mov	r3, r3, asl #16
	mov	r3, r3, lsr #16
	add	r3, r2, r3
	mov	r3, r3, asl #16
	mov	r2, r3, lsr #16
	ldrh	r3, [fp, #-20]
	mov	r0, r1
	mov	r1, r2
	mov	r2, r3
	bl	draw_point
	ldrh	r2, [fp, #-24]
	ldr	r3, [fp, #-12]
	mov	r3, r3, asl #16
	mov	r3, r3, lsr #16
	rsb	r3, r3, r2
	mov	r3, r3, asl #16
	mov	r1, r3, lsr #16
	ldrh	r2, [fp, #-22]
	ldr	r3, [fp, #-8]
	mov	r3, r3, asl #16
	mov	r3, r3, lsr #16
	add	r3, r2, r3
	mov	r3, r3, asl #16
	mov	r2, r3, lsr #16
	ldrh	r3, [fp, #-20]
	mov	r0, r1
	mov	r1, r2
	mov	r2, r3
	bl	draw_point
	ldrh	r2, [fp, #-24]
	ldr	r3, [fp, #-12]
	mov	r3, r3, asl #16
	mov	r3, r3, lsr #16
	add	r3, r2, r3
	mov	r3, r3, asl #16
	mov	r1, r3, lsr #16
	ldrh	r2, [fp, #-22]
	ldr	r3, [fp, #-8]
	mov	r3, r3, asl #16
	mov	r3, r3, lsr #16
	rsb	r3, r3, r2
	mov	r3, r3, asl #16
	mov	r2, r3, lsr #16
	ldrh	r3, [fp, #-20]
	mov	r0, r1
	mov	r1, r2
	mov	r2, r3
	bl	draw_point
	ldrh	r2, [fp, #-24]
	ldr	r3, [fp, #-12]
	mov	r3, r3, asl #16
	mov	r3, r3, lsr #16
	rsb	r3, r3, r2
	mov	r3, r3, asl #16
	mov	r1, r3, lsr #16
	ldrh	r2, [fp, #-22]
	ldr	r3, [fp, #-8]
	mov	r3, r3, asl #16
	mov	r3, r3, lsr #16
	rsb	r3, r3, r2
	mov	r3, r3, asl #16
	mov	r2, r3, lsr #16
	ldrh	r3, [fp, #-20]
	mov	r0, r1
	mov	r1, r2
	mov	r2, r3
	bl	draw_point
	ldr	r3, [fp, #-12]
	add	r3, r3, #1
	str	r3, [fp, #-12]
.L94:
	ldrh	r2, [fp, #-14]
	ldr	r3, [fp, #-12]
	cmp	r2, r3
	bgt	.L95
	ldr	r3, [fp, #-8]
	add	r3, r3, #1
	str	r3, [fp, #-8]
.L93:
	ldrh	r2, [fp, #-16]
	ldr	r3, [fp, #-8]
	cmp	r2, r3
	bge	.L96
	sub	sp, fp, #4
	@ sp needed
	ldmfd	sp!, {fp, lr}
	bx	lr
	.size	delete_note, .-delete_note
	.align	2
	.global	draw_keylane
	.type	draw_keylane, %function
draw_keylane:
	@ Function supports interworking.
	@ args = 0, pretend = 0, frame = 8
	@ frame_needed = 1, uses_anonymous_args = 0
	stmfd	sp!, {fp, lr}
	add	fp, sp, #4
	sub	sp, sp, #8
	mov	r3, #0
	strh	r3, [fp, #-6]	@ movhi
	b	.L98
.L101:
	mov	r3, #0
	strh	r3, [fp, #-8]	@ movhi
	b	.L99
.L100:
	ldrh	r3, [fp, #-6]	@ movhi
	mov	r2, r3	@ movhi
	mov	r2, r2, asl #2
	add	r2, r2, r3
	mov	r2, r2, asl #1
	add	r3, r2, r3
	mov	r3, r3, asl #2
	mov	r3, r3, asl #16
	mov	r3, r3, lsr #16
	add	r3, r3, #3
	mov	r3, r3, asl #16
	mov	r2, r3, lsr #16
	ldrh	r3, [fp, #-8]
	mov	r0, r2
	mov	r1, r3
	ldr	r2, .L102
	bl	draw_point
	ldrh	r3, [fp, #-8]
	add	r3, r3, #1
	strh	r3, [fp, #-8]	@ movhi
.L99:
	ldrh	r3, [fp, #-8]
	cmp	r3, #159
	bls	.L100
	ldrh	r3, [fp, #-6]
	add	r3, r3, #1
	strh	r3, [fp, #-6]	@ movhi
.L98:
	ldrh	r3, [fp, #-6]
	cmp	r3, #4
	bls	.L101
	sub	sp, fp, #4
	@ sp needed
	ldmfd	sp!, {fp, lr}
	bx	lr
.L103:
	.align	2
.L102:
	.word	32767
	.size	draw_keylane, .-draw_keylane
	.align	2
	.global	draw_judgeline
	.type	draw_judgeline, %function
draw_judgeline:
	@ Function supports interworking.
	@ args = 0, pretend = 0, frame = 16
	@ frame_needed = 1, uses_anonymous_args = 0
	stmfd	sp!, {fp, lr}
	add	fp, sp, #4
	sub	sp, sp, #16
	str	r0, [fp, #-16]
	mov	r3, #0
	strh	r3, [fp, #-6]	@ movhi
	b	.L105
.L112:
	ldrh	r3, [fp, #-6]
	mov	r3, r3, asl #1
	ldr	r2, [fp, #-16]
	add	r3, r2, r3
	ldrh	r3, [r3]
	cmp	r3, #0
	bne	.L106
	ldrh	r3, [fp, #-6]	@ movhi
	mov	r2, r3	@ movhi
	mov	r2, r2, asl #2
	add	r2, r2, r3
	mov	r2, r2, asl #1
	add	r3, r2, r3
	mov	r3, r3, asl #2
	mov	r3, r3, asl #16
	mov	r3, r3, lsr #16
	add	r3, r3, #4
	strh	r3, [fp, #-8]	@ movhi
	b	.L107
.L108:
	ldrh	r3, [fp, #-8]
	mov	r0, r3
	mov	r1, #143
	mov	r2, #0
	bl	draw_point
	ldrh	r3, [fp, #-8]
	mov	r0, r3
	mov	r1, #144
	ldr	r2, .L113
	bl	draw_point
	ldrh	r3, [fp, #-8]
	mov	r0, r3
	mov	r1, #145
	mov	r2, #0
	bl	draw_point
	ldrh	r3, [fp, #-8]
	add	r3, r3, #1
	strh	r3, [fp, #-8]	@ movhi
.L107:
	ldrh	r1, [fp, #-8]
	ldrh	r3, [fp, #-6]
	add	r2, r3, #1
	mov	r3, r2
	mov	r3, r3, asl #2
	add	r3, r3, r2
	mov	r3, r3, asl #1
	add	r3, r3, r2
	mov	r3, r3, asl #2
	add	r3, r3, #3
	cmp	r1, r3
	blt	.L108
	b	.L109
.L106:
	ldrh	r3, [fp, #-6]	@ movhi
	mov	r2, r3	@ movhi
	mov	r2, r2, asl #2
	add	r2, r2, r3
	mov	r2, r2, asl #1
	add	r3, r2, r3
	mov	r3, r3, asl #2
	mov	r3, r3, asl #16
	mov	r3, r3, lsr #16
	add	r3, r3, #4
	strh	r3, [fp, #-8]	@ movhi
	b	.L110
.L111:
	ldrh	r3, [fp, #-8]
	mov	r0, r3
	mov	r1, #143
	mov	r2, #31
	bl	draw_point
	ldrh	r3, [fp, #-8]
	mov	r0, r3
	mov	r1, #144
	mov	r2, #31
	bl	draw_point
	ldrh	r3, [fp, #-8]
	mov	r0, r3
	mov	r1, #145
	mov	r2, #31
	bl	draw_point
	ldrh	r3, [fp, #-8]
	add	r3, r3, #1
	strh	r3, [fp, #-8]	@ movhi
.L110:
	ldrh	r1, [fp, #-8]
	ldrh	r3, [fp, #-6]
	add	r2, r3, #1
	mov	r3, r2
	mov	r3, r3, asl #2
	add	r3, r3, r2
	mov	r3, r3, asl #1
	add	r3, r3, r2
	mov	r3, r3, asl #2
	add	r3, r3, #3
	cmp	r1, r3
	blt	.L111
.L109:
	ldrh	r3, [fp, #-6]
	add	r3, r3, #1
	strh	r3, [fp, #-6]	@ movhi
.L105:
	ldrh	r3, [fp, #-6]
	cmp	r3, #3
	bls	.L112
	sub	sp, fp, #4
	@ sp needed
	ldmfd	sp!, {fp, lr}
	bx	lr
.L114:
	.align	2
.L113:
	.word	1023
	.size	draw_judgeline, .-draw_judgeline
	.section	.rodata
	.align	2
.LC1:
	.ascii	"     \000"
	.align	2
.LC2:
	.ascii	"  1  \000"
	.align	2
.LC3:
	.ascii	"  2  \000"
	.align	2
.LC4:
	.ascii	"  3  \000"
	.align	2
.LC5:
	.ascii	"ready\000"
	.text
	.align	2
	.global	display_ready
	.type	display_ready, %function
display_ready:
	@ Function supports interworking.
	@ args = 0, pretend = 0, frame = 8
	@ frame_needed = 1, uses_anonymous_args = 0
	stmfd	sp!, {fp, lr}
	add	fp, sp, #4
	sub	sp, sp, #8
	ldr	r3, .L124
	mov	r2, #132
	strh	r2, [r3]	@ movhi
	mov	r0, #9
	mov	r1, #7
	bl	locate
.L122:
	ldr	r3, .L124+4
	ldrh	r3, [r3]	@ movhi
	strh	r3, [fp, #-6]	@ movhi
	ldrh	r3, [fp, #-6]
	cmp	r3, #600
	bls	.L116
	ldr	r0, .L124+8
	mov	r1, #31
	bl	prints
	b	.L123
.L116:
	ldrh	r3, [fp, #-6]
	cmp	r3, #500
	bls	.L118
	ldr	r0, .L124+12
	mov	r1, #31
	bl	prints
	b	.L119
.L118:
	ldrh	r3, [fp, #-6]
	cmp	r3, #400
	bls	.L120
	ldr	r0, .L124+16
	mov	r1, #31
	bl	prints
	b	.L119
.L120:
	ldrh	r3, [fp, #-6]
	cmp	r3, #300
	bls	.L121
	ldr	r0, .L124+20
	mov	r1, #31
	bl	prints
	b	.L119
.L121:
	ldrh	r3, [fp, #-6]
	cmp	r3, #0
	beq	.L119
	ldr	r0, .L124+24
	mov	r1, #31
	bl	prints
.L119:
	b	.L122
.L123:
	ldr	r3, .L124
	mov	r2, #4
	strh	r2, [r3]	@ movhi
	ldr	r3, .L124+4
	mov	r2, #0
	strh	r2, [r3]	@ movhi
	sub	sp, fp, #4
	@ sp needed
	ldmfd	sp!, {fp, lr}
	bx	lr
.L125:
	.align	2
.L124:
	.word	67109134
	.word	67109132
	.word	.LC1
	.word	.LC2
	.word	.LC3
	.word	.LC4
	.word	.LC5
	.size	display_ready, .-display_ready
	.section	.rodata
	.align	2
.LC6:
	.ascii	":\000"
	.text
	.align	2
	.global	display_time
	.type	display_time, %function
display_time:
	@ Function supports interworking.
	@ args = 0, pretend = 0, frame = 24
	@ frame_needed = 1, uses_anonymous_args = 0
	stmfd	sp!, {fp, lr}
	add	fp, sp, #4
	sub	sp, sp, #24
	mov	r3, r0
	strh	r3, [fp, #-22]	@ movhi
	ldrh	r3, [fp, #-22]
	mov	r0, r3
	mov	r1, #100
	bl	mod
	mov	r3, r0
	strh	r3, [fp, #-6]	@ movhi
	ldrh	r3, [fp, #-22]
	mov	r0, r3
	mov	r1, #100
	bl	div
	mov	r3, r0
	mov	r0, r3
	mov	r1, #60
	bl	mod
	mov	r3, r0
	strh	r3, [fp, #-8]	@ movhi
	ldrh	r3, [fp, #-22]
	mov	r0, r3
	ldr	r1, .L127
	bl	div
	mov	r3, r0
	mov	r0, r3
	mov	r1, #60
	bl	mod
	mov	r3, r0
	strh	r3, [fp, #-10]	@ movhi
	mov	r3, #23
	strh	r3, [fp, #-12]	@ movhi
	mov	r3, #0
	strh	r3, [fp, #-14]	@ movhi
	ldrh	r2, [fp, #-12]
	ldrh	r3, [fp, #-14]
	mov	r0, r2
	mov	r1, r3
	bl	locate
	ldrh	r3, [fp, #-10]
	mov	r0, r3
	mov	r1, #1
	ldr	r2, .L127+4
	bl	num_to_string
	ldrh	r3, [fp, #-12]	@ movhi
	add	r3, r3, #1
	mov	r3, r3, asl #16
	mov	r2, r3, lsr #16
	ldrh	r3, [fp, #-14]
	mov	r0, r2
	mov	r1, r3
	bl	locate
	ldr	r0, .L127+8
	ldr	r1, .L127+4
	bl	prints
	ldrh	r3, [fp, #-12]	@ movhi
	add	r3, r3, #2
	mov	r3, r3, asl #16
	mov	r2, r3, lsr #16
	ldrh	r3, [fp, #-14]
	mov	r0, r2
	mov	r1, r3
	bl	locate
	ldrh	r3, [fp, #-8]
	mov	r0, r3
	mov	r1, #2
	ldr	r2, .L127+4
	bl	num_to_string
	ldrh	r3, [fp, #-12]	@ movhi
	add	r3, r3, #4
	mov	r3, r3, asl #16
	mov	r2, r3, lsr #16
	ldrh	r3, [fp, #-14]
	mov	r0, r2
	mov	r1, r3
	bl	locate
	ldr	r0, .L127+8
	ldr	r1, .L127+4
	bl	prints
	ldrh	r3, [fp, #-12]	@ movhi
	add	r3, r3, #5
	mov	r3, r3, asl #16
	mov	r2, r3, lsr #16
	ldrh	r3, [fp, #-14]
	mov	r0, r2
	mov	r1, r3
	bl	locate
	ldrh	r3, [fp, #-6]
	mov	r0, r3
	mov	r1, #2
	ldr	r2, .L127+4
	bl	num_to_string
	sub	sp, fp, #4
	@ sp needed
	ldmfd	sp!, {fp, lr}
	bx	lr
.L128:
	.align	2
.L127:
	.word	6000
	.word	32767
	.word	.LC6
	.size	display_time, .-display_time
	.section	.rodata
	.align	2
.LC7:
	.ascii	"SC:\000"
	.align	2
.LC8:
	.ascii	"BE:\000"
	.align	2
.LC9:
	.ascii	"CL:\000"
	.align	2
.LC10:
	.ascii	"GD:\000"
	.align	2
.LC11:
	.ascii	"MS:\000"
	.text
	.align	2
	.global	display_score_set
	.type	display_score_set, %function
display_score_set:
	@ Function supports interworking.
	@ args = 0, pretend = 0, frame = 8
	@ frame_needed = 1, uses_anonymous_args = 0
	stmfd	sp!, {fp, lr}
	add	fp, sp, #4
	sub	sp, sp, #8
	mov	r3, #23
	strh	r3, [fp, #-6]	@ movhi
	mov	r3, #2
	strh	r3, [fp, #-8]	@ movhi
	ldrh	r2, [fp, #-6]
	ldrh	r3, [fp, #-8]
	mov	r0, r2
	mov	r1, r3
	bl	locate
	ldr	r0, .L130
	ldr	r1, .L130+4
	bl	prints
	ldrh	r3, [fp, #-8]	@ movhi
	add	r3, r3, #2
	mov	r3, r3, asl #16
	mov	r3, r3, lsr #16
	ldrh	r2, [fp, #-6]
	mov	r0, r2
	mov	r1, r3
	bl	locate
	ldr	r0, .L130+8
	mov	r1, #31
	bl	prints
	ldrh	r3, [fp, #-8]	@ movhi
	add	r3, r3, #4
	mov	r3, r3, asl #16
	mov	r3, r3, lsr #16
	ldrh	r2, [fp, #-6]
	mov	r0, r2
	mov	r1, r3
	bl	locate
	ldr	r0, .L130+12
	ldr	r1, .L130+16
	bl	prints
	ldrh	r3, [fp, #-8]	@ movhi
	add	r3, r3, #6
	mov	r3, r3, asl #16
	mov	r3, r3, lsr #16
	ldrh	r2, [fp, #-6]
	mov	r0, r2
	mov	r1, r3
	bl	locate
	ldr	r0, .L130+20
	mov	r1, #992
	bl	prints
	ldrh	r3, [fp, #-8]	@ movhi
	add	r3, r3, #8
	mov	r3, r3, asl #16
	mov	r3, r3, lsr #16
	ldrh	r2, [fp, #-6]
	mov	r0, r2
	mov	r1, r3
	bl	locate
	ldr	r0, .L130+24
	mov	r1, #31744
	bl	prints
	sub	sp, fp, #4
	@ sp needed
	ldmfd	sp!, {fp, lr}
	bx	lr
.L131:
	.align	2
.L130:
	.word	.LC7
	.word	32767
	.word	.LC8
	.word	.LC9
	.word	1023
	.word	.LC10
	.word	.LC11
	.size	display_score_set, .-display_score_set
	.align	2
	.global	display_score
	.type	display_score, %function
display_score:
	@ Function supports interworking.
	@ args = 0, pretend = 0, frame = 16
	@ frame_needed = 1, uses_anonymous_args = 0
	stmfd	sp!, {fp, lr}
	add	fp, sp, #4
	sub	sp, sp, #16
	strh	r0, [fp, #-14]	@ movhi
	strh	r1, [fp, #-16]	@ movhi
	strh	r2, [fp, #-18]	@ movhi
	strh	r3, [fp, #-20]	@ movhi
	ldrh	r2, [fp, #-14]	@ movhi
	ldrh	r3, [fp, #-16]	@ movhi
	add	r3, r2, r3
	mov	r3, r3, asl #16
	mov	r2, r3, lsr #16
	ldrh	r3, [fp, #-18]	@ movhi
	add	r3, r2, r3
	mov	r3, r3, asl #16
	mov	r2, r3, lsr #16
	ldrh	r3, [fp, #-20]	@ movhi
	add	r3, r2, r3
	strh	r3, [fp, #-6]	@ movhi
	ldrh	r3, [fp, #-14]	@ movhi
	mov	r2, r3	@ movhi
	mov	r2, r2, asl #2
	add	r3, r2, r3
	mov	r3, r3, asl #1
	mov	r3, r3, asl #16
	mov	r2, r3, lsr #16
	ldrh	r3, [fp, #-16]	@ movhi
	mov	r1, r3	@ movhi
	mov	r1, r1, asl #3
	rsb	r3, r3, r1
	mov	r3, r3, asl #16
	mov	r3, r3, lsr #16
	add	r3, r2, r3
	mov	r3, r3, asl #16
	mov	r2, r3, lsr #16
	ldrh	r3, [fp, #-18]	@ movhi
	mov	r1, r3	@ movhi
	mov	r1, r1, asl #1
	add	r3, r1, r3
	mov	r3, r3, asl #16
	mov	r3, r3, lsr #16
	add	r3, r2, r3
	strh	r3, [fp, #-8]	@ movhi
	mov	r3, #23
	strh	r3, [fp, #-10]	@ movhi
	mov	r3, #2
	strh	r3, [fp, #-12]	@ movhi
	ldrh	r3, [fp, #-10]	@ movhi
	add	r3, r3, #2
	mov	r3, r3, asl #16
	mov	r2, r3, lsr #16
	ldrh	r3, [fp, #-12]	@ movhi
	add	r3, r3, #1
	mov	r3, r3, asl #16
	mov	r3, r3, lsr #16
	mov	r0, r2
	mov	r1, r3
	bl	locate
	ldrh	r3, [fp, #-8]
	mov	r0, r3
	mov	r1, #5
	ldr	r2, .L133
	bl	num_to_string
	ldrh	r3, [fp, #-10]	@ movhi
	add	r3, r3, #3
	mov	r3, r3, asl #16
	mov	r2, r3, lsr #16
	ldrh	r3, [fp, #-12]	@ movhi
	add	r3, r3, #3
	mov	r3, r3, asl #16
	mov	r3, r3, lsr #16
	mov	r0, r2
	mov	r1, r3
	bl	locate
	ldrh	r3, [fp, #-14]
	mov	r0, r3
	mov	r1, #4
	mov	r2, #31
	bl	num_to_string
	ldrh	r3, [fp, #-10]	@ movhi
	add	r3, r3, #3
	mov	r3, r3, asl #16
	mov	r2, r3, lsr #16
	ldrh	r3, [fp, #-12]	@ movhi
	add	r3, r3, #5
	mov	r3, r3, asl #16
	mov	r3, r3, lsr #16
	mov	r0, r2
	mov	r1, r3
	bl	locate
	ldrh	r3, [fp, #-16]
	mov	r0, r3
	mov	r1, #4
	ldr	r2, .L133+4
	bl	num_to_string
	ldrh	r3, [fp, #-10]	@ movhi
	add	r3, r3, #3
	mov	r3, r3, asl #16
	mov	r2, r3, lsr #16
	ldrh	r3, [fp, #-12]	@ movhi
	add	r3, r3, #7
	mov	r3, r3, asl #16
	mov	r3, r3, lsr #16
	mov	r0, r2
	mov	r1, r3
	bl	locate
	ldrh	r3, [fp, #-18]
	mov	r0, r3
	mov	r1, #4
	mov	r2, #992
	bl	num_to_string
	ldrh	r3, [fp, #-10]	@ movhi
	add	r3, r3, #3
	mov	r3, r3, asl #16
	mov	r2, r3, lsr #16
	ldrh	r3, [fp, #-12]	@ movhi
	add	r3, r3, #9
	mov	r3, r3, asl #16
	mov	r3, r3, lsr #16
	mov	r0, r2
	mov	r1, r3
	bl	locate
	ldrh	r3, [fp, #-20]
	mov	r0, r3
	mov	r1, #4
	mov	r2, #31744
	bl	num_to_string
	sub	sp, fp, #4
	@ sp needed
	ldmfd	sp!, {fp, lr}
	bx	lr
.L134:
	.align	2
.L133:
	.word	32767
	.word	1023
	.size	display_score, .-display_score
	.section	.rodata
	.align	2
.LC12:
	.ascii	"D\000"
	.align	2
.LC13:
	.ascii	"F\000"
	.align	2
.LC14:
	.ascii	"J\000"
	.align	2
.LC15:
	.ascii	"K\000"
	.text
	.align	2
	.global	display_button
	.type	display_button, %function
display_button:
	@ Function supports interworking.
	@ args = 0, pretend = 0, frame = 16
	@ frame_needed = 1, uses_anonymous_args = 0
	stmfd	sp!, {fp, lr}
	add	fp, sp, #4
	sub	sp, sp, #16
	mov	r3, r1
	str	r2, [fp, #-20]
	strh	r0, [fp, #-14]	@ movhi
	strh	r3, [fp, #-16]	@ movhi
	mov	r3, #0
	str	r3, [fp, #-8]
	b	.L136
.L147:
	ldr	r3, [fp, #-8]
	mov	r3, r3, asl #16
	mov	r2, r3, lsr #16
	ldrh	r3, [fp, #-14]	@ movhi
	add	r3, r2, r3
	mov	r3, r3, asl #16
	mov	r2, r3, lsr #16
	ldrh	r3, [fp, #-16]
	mov	r0, r2
	mov	r1, r3
	bl	locate
	ldr	r3, [fp, #-8]
	mov	r3, r3, asl #1
	ldr	r2, [fp, #-20]
	add	r3, r2, r3
	ldrh	r3, [r3]
	cmp	r3, #1
	beq	.L138
	cmp	r3, #2
	beq	.L139
	cmp	r3, #0
	bne	.L137
	mvn	r3, #32768
	strh	r3, [fp, #-10]	@ movhi
	b	.L137
.L138:
	mov	r3, #31
	strh	r3, [fp, #-10]	@ movhi
	b	.L137
.L139:
	mov	r3, #31
	strh	r3, [fp, #-10]	@ movhi
	mov	r0, r0	@ nop
.L137:
	ldr	r3, [fp, #-8]
	cmp	r3, #3
	ldrls	pc, [pc, r3, asl #2]
	b	.L141
.L143:
	.word	.L142
	.word	.L144
	.word	.L145
	.word	.L146
.L142:
	ldrh	r3, [fp, #-10]
	ldr	r0, .L148
	mov	r1, r3
	bl	prints
	b	.L141
.L144:
	ldrh	r3, [fp, #-10]
	ldr	r0, .L148+4
	mov	r1, r3
	bl	prints
	b	.L141
.L145:
	ldrh	r3, [fp, #-10]
	ldr	r0, .L148+8
	mov	r1, r3
	bl	prints
	b	.L141
.L146:
	ldrh	r3, [fp, #-10]
	ldr	r0, .L148+12
	mov	r1, r3
	bl	prints
	mov	r0, r0	@ nop
.L141:
	ldr	r3, [fp, #-8]
	add	r3, r3, #1
	str	r3, [fp, #-8]
.L136:
	ldr	r3, [fp, #-8]
	cmp	r3, #3
	ble	.L147
	sub	sp, fp, #4
	@ sp needed
	ldmfd	sp!, {fp, lr}
	bx	lr
.L149:
	.align	2
.L148:
	.word	.LC12
	.word	.LC13
	.word	.LC14
	.word	.LC15
	.size	display_button, .-display_button
	.section	.rodata
	.align	2
.LC16:
	.ascii	"BE\000"
	.align	2
.LC17:
	.ascii	"ST\000"
	.text
	.align	2
	.global	display_best
	.type	display_best, %function
display_best:
	@ Function supports interworking.
	@ args = 0, pretend = 0, frame = 0
	@ frame_needed = 1, uses_anonymous_args = 0
	stmfd	sp!, {fp, lr}
	add	fp, sp, #4
	mov	r0, #9
	mov	r1, #6
	bl	locate
	ldr	r0, .L151
	mov	r1, #31
	bl	prints
	mov	r0, #12
	mov	r1, #6
	bl	locate
	ldr	r0, .L151+4
	mov	r1, #31
	bl	prints
	sub	sp, fp, #4
	@ sp needed
	ldmfd	sp!, {fp, lr}
	bx	lr
.L152:
	.align	2
.L151:
	.word	.LC16
	.word	.LC17
	.size	display_best, .-display_best
	.section	.rodata
	.align	2
.LC18:
	.ascii	"CO\000"
	.align	2
.LC19:
	.ascii	"OL\000"
	.text
	.align	2
	.global	display_cool
	.type	display_cool, %function
display_cool:
	@ Function supports interworking.
	@ args = 0, pretend = 0, frame = 0
	@ frame_needed = 1, uses_anonymous_args = 0
	stmfd	sp!, {fp, lr}
	add	fp, sp, #4
	mov	r0, #9
	mov	r1, #6
	bl	locate
	ldr	r0, .L154
	ldr	r1, .L154+4
	bl	prints
	mov	r0, #12
	mov	r1, #6
	bl	locate
	ldr	r0, .L154+8
	ldr	r1, .L154+4
	bl	prints
	sub	sp, fp, #4
	@ sp needed
	ldmfd	sp!, {fp, lr}
	bx	lr
.L155:
	.align	2
.L154:
	.word	.LC18
	.word	1023
	.word	.LC19
	.size	display_cool, .-display_cool
	.section	.rodata
	.align	2
.LC20:
	.ascii	"GO\000"
	.align	2
.LC21:
	.ascii	"OD\000"
	.text
	.align	2
	.global	display_good
	.type	display_good, %function
display_good:
	@ Function supports interworking.
	@ args = 0, pretend = 0, frame = 0
	@ frame_needed = 1, uses_anonymous_args = 0
	stmfd	sp!, {fp, lr}
	add	fp, sp, #4
	mov	r0, #9
	mov	r1, #6
	bl	locate
	ldr	r0, .L157
	mov	r1, #992
	bl	prints
	mov	r0, #12
	mov	r1, #6
	bl	locate
	ldr	r0, .L157+4
	mov	r1, #992
	bl	prints
	sub	sp, fp, #4
	@ sp needed
	ldmfd	sp!, {fp, lr}
	bx	lr
.L158:
	.align	2
.L157:
	.word	.LC20
	.word	.LC21
	.size	display_good, .-display_good
	.section	.rodata
	.align	2
.LC22:
	.ascii	"MI\000"
	.align	2
.LC23:
	.ascii	"SS\000"
	.text
	.align	2
	.global	display_miss
	.type	display_miss, %function
display_miss:
	@ Function supports interworking.
	@ args = 0, pretend = 0, frame = 0
	@ frame_needed = 1, uses_anonymous_args = 0
	stmfd	sp!, {fp, lr}
	add	fp, sp, #4
	mov	r0, #9
	mov	r1, #6
	bl	locate
	ldr	r0, .L160
	mov	r1, #31744
	bl	prints
	mov	r0, #12
	mov	r1, #6
	bl	locate
	ldr	r0, .L160+4
	mov	r1, #31744
	bl	prints
	sub	sp, fp, #4
	@ sp needed
	ldmfd	sp!, {fp, lr}
	bx	lr
.L161:
	.align	2
.L160:
	.word	.LC22
	.word	.LC23
	.size	display_miss, .-display_miss
	.align	2
	.global	display_combo
	.type	display_combo, %function
display_combo:
	@ Function supports interworking.
	@ args = 0, pretend = 0, frame = 8
	@ frame_needed = 1, uses_anonymous_args = 0
	stmfd	sp!, {fp, lr}
	add	fp, sp, #4
	sub	sp, sp, #8
	mov	r3, r0
	strh	r3, [fp, #-6]	@ movhi
	mov	r0, #9
	mov	r1, #8
	bl	locate
	ldrh	r3, [fp, #-6]
	mov	r0, r3
	mov	r1, #5
	ldr	r2, .L163
	bl	num_to_string
	sub	sp, fp, #4
	@ sp needed
	ldmfd	sp!, {fp, lr}
	bx	lr
.L164:
	.align	2
.L163:
	.word	32767
	.size	display_combo, .-display_combo
	.align	2
	.global	display_life
	.type	display_life, %function
display_life:
	@ Function supports interworking.
	@ args = 0, pretend = 0, frame = 24
	@ frame_needed = 1, uses_anonymous_args = 0
	stmfd	sp!, {fp, lr}
	add	fp, sp, #4
	sub	sp, sp, #24
	mov	r3, r0
	strh	r3, [fp, #-22]	@ movhi
	mov	r3, #225
	strh	r3, [fp, #-10]	@ movhi
	mov	r3, #200
	strh	r3, [fp, #-12]	@ movhi
	mov	r3, #135
	strh	r3, [fp, #-14]	@ movhi
	mov	r3, #100
	strh	r3, [fp, #-16]	@ movhi
	ldrh	r3, [fp, #-22]	@ movhi
	rsb	r3, r3, #135
	strh	r3, [fp, #-18]	@ movhi
	ldrh	r3, [fp, #-16]	@ movhi
	strh	r3, [fp, #-8]	@ movhi
	b	.L166
.L170:
	ldrh	r3, [fp, #-12]	@ movhi
	sub	r3, r3, #1
	mov	r3, r3, asl #16
	mov	r2, r3, lsr #16
	ldrh	r3, [fp, #-8]
	mov	r0, r2
	mov	r1, r3
	ldr	r2, .L177
	bl	draw_point
	ldrh	r3, [fp, #-10]	@ movhi
	add	r3, r3, #1
	mov	r3, r3, asl #16
	mov	r2, r3, lsr #16
	ldrh	r3, [fp, #-8]
	mov	r0, r2
	mov	r1, r3
	ldr	r2, .L177
	bl	draw_point
	ldrh	r2, [fp, #-8]
	ldrh	r3, [fp, #-14]
	add	r3, r3, #1
	cmp	r2, r3
	bne	.L167
	ldrh	r3, [fp, #-12]	@ movhi
	strh	r3, [fp, #-6]	@ movhi
	b	.L168
.L169:
	ldrh	r2, [fp, #-6]
	ldrh	r3, [fp, #-8]
	mov	r0, r2
	mov	r1, r3
	ldr	r2, .L177
	bl	draw_point
	ldrh	r3, [fp, #-6]
	add	r3, r3, #1
	strh	r3, [fp, #-6]	@ movhi
.L168:
	ldrh	r2, [fp, #-6]
	ldrh	r3, [fp, #-10]
	cmp	r2, r3
	bls	.L169
.L167:
	ldrh	r3, [fp, #-8]
	add	r3, r3, #1
	strh	r3, [fp, #-8]	@ movhi
.L166:
	ldrh	r2, [fp, #-8]
	ldrh	r3, [fp, #-14]
	add	r3, r3, #1
	cmp	r2, r3
	ble	.L170
	ldrh	r3, [fp, #-16]	@ movhi
	strh	r3, [fp, #-8]	@ movhi
	b	.L171
.L176:
	ldrh	r3, [fp, #-12]	@ movhi
	strh	r3, [fp, #-6]	@ movhi
	b	.L172
.L175:
	ldrh	r2, [fp, #-8]
	ldrh	r3, [fp, #-18]
	cmp	r2, r3
	bcs	.L173
	ldrh	r2, [fp, #-6]
	ldrh	r3, [fp, #-8]
	mov	r0, r2
	mov	r1, r3
	mov	r2, #0
	bl	draw_point
	b	.L174
.L173:
	ldrh	r2, [fp, #-6]
	ldrh	r3, [fp, #-8]
	mov	r0, r2
	mov	r1, r3
	ldr	r2, .L177+4
	bl	draw_point
.L174:
	ldrh	r3, [fp, #-6]
	add	r3, r3, #1
	strh	r3, [fp, #-6]	@ movhi
.L172:
	ldrh	r2, [fp, #-6]
	ldrh	r3, [fp, #-10]
	cmp	r2, r3
	bls	.L175
	ldrh	r3, [fp, #-8]
	add	r3, r3, #1
	strh	r3, [fp, #-8]	@ movhi
.L171:
	ldrh	r2, [fp, #-8]
	ldrh	r3, [fp, #-14]
	cmp	r2, r3
	bls	.L176
	sub	sp, fp, #4
	@ sp needed
	ldmfd	sp!, {fp, lr}
	bx	lr
.L178:
	.align	2
.L177:
	.word	32767
	.word	31775
	.size	display_life, .-display_life
	.align	2
	.global	judge_key
	.type	judge_key, %function
judge_key:
	@ Function supports interworking.
	@ args = 0, pretend = 0, frame = 8
	@ frame_needed = 1, uses_anonymous_args = 0
	@ link register save eliminated.
	str	fp, [sp, #-4]!
	add	fp, sp, #0
	sub	sp, sp, #12
	ldr	r3, .L181
	str	r3, [fp, #-8]
	ldr	r3, [fp, #-8]
	ldrh	r3, [r3]	@ movhi
	strh	r3, [fp, #-10]	@ movhi
	ldrh	r3, [fp, #-10]	@ movhi
	mvn	r3, r3
	mov	r3, r3, asl #16
	mov	r3, r3, lsr #16
	mov	r3, r3, asl #22
	mov	r3, r3, lsr #22
	strh	r3, [fp, #-12]	@ movhi
	ldrh	r3, [fp, #-12]
	mov	r0, r3
	sub	sp, fp, #0
	@ sp needed
	ldr	fp, [sp], #4
	bx	lr
.L182:
	.align	2
.L181:
	.word	67109168
	.size	judge_key, .-judge_key
	.align	2
	.global	judge_finger0
	.type	judge_finger0, %function
judge_finger0:
	@ Function supports interworking.
	@ args = 0, pretend = 0, frame = 8
	@ frame_needed = 1, uses_anonymous_args = 0
	@ link register save eliminated.
	str	fp, [sp, #-4]!
	add	fp, sp, #0
	sub	sp, sp, #12
	mov	r2, r0
	mov	r3, r1
	strh	r2, [fp, #-6]	@ movhi
	strh	r3, [fp, #-8]	@ movhi
	ldrh	r3, [fp, #-6]
	and	r3, r3, #512
	cmp	r3, #0
	bne	.L184
	ldrh	r3, [fp, #-8]
	and	r3, r3, #512
	cmp	r3, #0
	beq	.L184
	mov	r3, #1
	b	.L185
.L184:
	ldrh	r3, [fp, #-6]
	and	r3, r3, #512
	cmp	r3, #0
	beq	.L186
	ldrh	r3, [fp, #-8]
	and	r3, r3, #512
	cmp	r3, #0
	beq	.L186
	mov	r3, #2
	b	.L185
.L186:
	mov	r3, #0
.L185:
	mov	r0, r3
	sub	sp, fp, #0
	@ sp needed
	ldr	fp, [sp], #4
	bx	lr
	.size	judge_finger0, .-judge_finger0
	.align	2
	.global	judge_finger1
	.type	judge_finger1, %function
judge_finger1:
	@ Function supports interworking.
	@ args = 0, pretend = 0, frame = 8
	@ frame_needed = 1, uses_anonymous_args = 0
	@ link register save eliminated.
	str	fp, [sp, #-4]!
	add	fp, sp, #0
	sub	sp, sp, #12
	mov	r2, r0
	mov	r3, r1
	strh	r2, [fp, #-6]	@ movhi
	strh	r3, [fp, #-8]	@ movhi
	ldrh	r3, [fp, #-6]
	and	r3, r3, #1
	cmp	r3, #0
	bne	.L188
	ldrh	r3, [fp, #-8]
	and	r3, r3, #1
	cmp	r3, #0
	beq	.L188
	mov	r3, #1
	b	.L189
.L188:
	ldrh	r3, [fp, #-6]
	and	r3, r3, #1
	cmp	r3, #0
	beq	.L190
	ldrh	r3, [fp, #-8]
	and	r3, r3, #1
	cmp	r3, #0
	beq	.L190
	mov	r3, #2
	b	.L189
.L190:
	mov	r3, #0
.L189:
	mov	r0, r3
	sub	sp, fp, #0
	@ sp needed
	ldr	fp, [sp], #4
	bx	lr
	.size	judge_finger1, .-judge_finger1
	.align	2
	.global	judge_finger2
	.type	judge_finger2, %function
judge_finger2:
	@ Function supports interworking.
	@ args = 0, pretend = 0, frame = 8
	@ frame_needed = 1, uses_anonymous_args = 0
	@ link register save eliminated.
	str	fp, [sp, #-4]!
	add	fp, sp, #0
	sub	sp, sp, #12
	mov	r2, r0
	mov	r3, r1
	strh	r2, [fp, #-6]	@ movhi
	strh	r3, [fp, #-8]	@ movhi
	ldrh	r3, [fp, #-6]
	and	r3, r3, #2
	cmp	r3, #0
	bne	.L192
	ldrh	r3, [fp, #-8]
	and	r3, r3, #2
	cmp	r3, #0
	beq	.L192
	mov	r3, #1
	b	.L193
.L192:
	ldrh	r3, [fp, #-6]
	and	r3, r3, #2
	cmp	r3, #0
	beq	.L194
	ldrh	r3, [fp, #-8]
	and	r3, r3, #2
	cmp	r3, #0
	beq	.L194
	mov	r3, #2
	b	.L193
.L194:
	mov	r3, #0
.L193:
	mov	r0, r3
	sub	sp, fp, #0
	@ sp needed
	ldr	fp, [sp], #4
	bx	lr
	.size	judge_finger2, .-judge_finger2
	.align	2
	.global	judge_finger3
	.type	judge_finger3, %function
judge_finger3:
	@ Function supports interworking.
	@ args = 0, pretend = 0, frame = 8
	@ frame_needed = 1, uses_anonymous_args = 0
	@ link register save eliminated.
	str	fp, [sp, #-4]!
	add	fp, sp, #0
	sub	sp, sp, #12
	mov	r2, r0
	mov	r3, r1
	strh	r2, [fp, #-6]	@ movhi
	strh	r3, [fp, #-8]	@ movhi
	ldrh	r3, [fp, #-6]
	and	r3, r3, #256
	cmp	r3, #0
	bne	.L196
	ldrh	r3, [fp, #-8]
	and	r3, r3, #256
	cmp	r3, #0
	beq	.L196
	mov	r3, #1
	b	.L197
.L196:
	ldrh	r3, [fp, #-6]
	and	r3, r3, #256
	cmp	r3, #0
	beq	.L198
	ldrh	r3, [fp, #-8]
	and	r3, r3, #256
	cmp	r3, #0
	beq	.L198
	mov	r3, #2
	b	.L197
.L198:
	mov	r3, #0
.L197:
	mov	r0, r3
	sub	sp, fp, #0
	@ sp needed
	ldr	fp, [sp], #4
	bx	lr
	.size	judge_finger3, .-judge_finger3
	.section	.rodata
	.align	2
.LC24:
	.ascii	"#include\000"
	.align	2
.LC25:
	.ascii	"<cold.io>\000"
	.align	2
.LC26:
	.ascii	"#define\000"
	.align	2
.LC27:
	.ascii	"ID door\000"
	.align	2
.LC28:
	.ascii	"int     (){\000"
	.align	2
.LC29:
	.ascii	"main\000"
	.align	2
.LC30:
	.ascii	"welcome\000"
	.align	2
.LC31:
	.ascii	"(!      ()){\000"
	.align	2
.LC32:
	.ascii	"mygame\000"
	.align	2
.LC33:
	.ascii	"for\000"
	.align	2
.LC34:
	.ascii	"(your : playing){\000"
	.align	2
.LC35:
	.ascii	"!!!\000"
	.align	2
.LC36:
	.ascii	"Please\000"
	.align	2
.LC37:
	.ascii	".\000"
	.align	2
.LC38:
	.ascii	"change\000"
	.align	2
.LC39:
	.ascii	"(      );\000"
	.align	2
.LC40:
	.ascii	"config\000"
	.align	2
.LC41:
	.ascii	"from\000"
	.align	2
.LC42:
	.ascii	"(       (      )){\000"
	.align	2
.LC43:
	.ascii	"Options\000"
	.align	2
.LC44:
	.ascii	"joypad\000"
	.align	2
.LC45:
	.ascii	"key.   >>  key. ;\000"
	.align	2
.LC46:
	.ascii	"A\000"
	.align	2
.LC47:
	.ascii	"B\000"
	.align	2
.LC48:
	.ascii	"L\000"
	.align	2
.LC49:
	.ascii	"R\000"
	.align	2
.LC50:
	.ascii	"}\000"
	.align	2
.LC51:
	.ascii	"return\000"
	.align	2
.LC52:
	.ascii	".          ;\000"
	.align	2
.LC53:
	.ascii	"//(LABR)\000"
	.text
	.align	2
	.global	display_title
	.type	display_title, %function
display_title:
	@ Function supports interworking.
	@ args = 0, pretend = 0, frame = 0
	@ frame_needed = 1, uses_anonymous_args = 0
	stmfd	sp!, {fp, lr}
	add	fp, sp, #4
	mov	r0, #0
	bl	paint_all
	mov	r0, #0
	mov	r1, #0
	bl	locate
	ldr	r0, .L200
	mov	r1, #992
	bl	prints
	mov	r0, #9
	mov	r1, #0
	bl	locate
	ldr	r0, .L200+4
	ldr	r1, .L200+8
	bl	prints
	mov	r0, #0
	mov	r1, #1
	bl	locate
	ldr	r0, .L200+12
	mov	r1, #992
	bl	prints
	mov	r0, #8
	mov	r1, #1
	bl	locate
	ldr	r0, .L200+16
	ldr	r1, .L200+8
	bl	prints
	mov	r0, #0
	mov	r1, #3
	bl	locate
	ldr	r0, .L200+20
	ldr	r1, .L200+8
	bl	prints
	mov	r0, #4
	mov	r1, #3
	bl	locate
	ldr	r0, .L200+24
	mov	r1, #31
	bl	prints
	mov	r0, #2
	mov	r1, #4
	bl	locate
	ldr	r0, .L200+28
	ldr	r1, .L200+32
	bl	prints
	mov	r0, #9
	mov	r1, #4
	bl	locate
	ldr	r0, .L200+36
	ldr	r1, .L200+8
	bl	prints
	mov	r0, #11
	mov	r1, #4
	bl	locate
	ldr	r0, .L200+40
	ldr	r1, .L200+44
	bl	prints
	mov	r0, #4
	mov	r1, #5
	bl	locate
	ldr	r0, .L200+48
	ldr	r1, .L200+32
	bl	prints
	mov	r0, #7
	mov	r1, #5
	bl	locate
	ldr	r0, .L200+52
	ldr	r1, .L200+8
	bl	prints
	mov	r0, #2
	mov	r1, #7
	bl	locate
	ldr	r0, .L200+56
	mov	r1, #31
	bl	prints
	mov	r0, #6
	mov	r1, #7
	bl	locate
	ldr	r0, .L200+60
	ldr	r1, .L200+64
	bl	prints
	mov	r0, #12
	mov	r1, #7
	bl	locate
	ldr	r0, .L200+68
	ldr	r1, .L200+8
	bl	prints
	mov	r0, #13
	mov	r1, #7
	bl	locate
	ldr	r0, .L200+72
	ldr	r1, .L200+44
	bl	prints
	mov	r0, #19
	mov	r1, #7
	bl	locate
	ldr	r0, .L200+76
	ldr	r1, .L200+8
	bl	prints
	mov	r0, #20
	mov	r1, #7
	bl	locate
	ldr	r0, .L200+80
	mov	r1, #992
	bl	prints
	mov	r0, #6
	mov	r1, #8
	bl	locate
	ldr	r0, .L200+84
	ldr	r1, .L200+32
	bl	prints
	mov	r0, #10
	mov	r1, #8
	bl	locate
	ldr	r0, .L200+88
	ldr	r1, .L200+8
	bl	prints
	mov	r0, #11
	mov	r1, #8
	bl	locate
	ldr	r0, .L200+92
	ldr	r1, .L200+44
	bl	prints
	mov	r0, #19
	mov	r1, #8
	bl	locate
	ldr	r0, .L200+96
	mov	r1, #992
	bl	prints
	mov	r0, #8
	mov	r1, #10
	bl	locate
	ldr	r0, .L200+100
	ldr	r1, .L200+8
	bl	prints
	mov	r0, #12
	mov	r1, #10
	bl	locate
	ldr	r0, .L200+104
	mov	r1, #992
	bl	prints
	mov	r0, #23
	mov	r1, #10
	bl	locate
	ldr	r0, .L200+108
	mov	r1, #992
	bl	prints
	mov	r0, #8
	mov	r1, #11
	bl	locate
	ldr	r0, .L200+100
	ldr	r1, .L200+8
	bl	prints
	mov	r0, #12
	mov	r1, #11
	bl	locate
	ldr	r0, .L200+112
	mov	r1, #992
	bl	prints
	mov	r0, #23
	mov	r1, #11
	bl	locate
	ldr	r0, .L200+116
	mov	r1, #992
	bl	prints
	mov	r0, #8
	mov	r1, #12
	bl	locate
	ldr	r0, .L200+100
	ldr	r1, .L200+8
	bl	prints
	mov	r0, #12
	mov	r1, #12
	bl	locate
	ldr	r0, .L200+120
	mov	r1, #992
	bl	prints
	mov	r0, #23
	mov	r1, #12
	bl	locate
	ldr	r0, .L200+124
	mov	r1, #992
	bl	prints
	mov	r0, #8
	mov	r1, #13
	bl	locate
	ldr	r0, .L200+100
	ldr	r1, .L200+8
	bl	prints
	mov	r0, #12
	mov	r1, #13
	bl	locate
	ldr	r0, .L200+128
	mov	r1, #992
	bl	prints
	mov	r0, #23
	mov	r1, #13
	bl	locate
	ldr	r0, .L200+132
	mov	r1, #992
	bl	prints
	mov	r0, #6
	mov	r1, #14
	bl	locate
	ldr	r0, .L200+136
	ldr	r1, .L200+8
	bl	prints
	mov	r0, #4
	mov	r1, #15
	bl	locate
	ldr	r0, .L200+136
	ldr	r1, .L200+8
	bl	prints
	mov	r0, #2
	mov	r1, #16
	bl	locate
	ldr	r0, .L200+136
	ldr	r1, .L200+8
	bl	prints
	mov	r0, #2
	mov	r1, #17
	bl	locate
	ldr	r0, .L200+140
	ldr	r1, .L200+32
	bl	prints
	mov	r0, #15
	mov	r1, #17
	bl	locate
	ldr	r0, .L200+144
	ldr	r1, .L200+8
	bl	prints
	mov	r0, #0
	mov	r1, #18
	bl	locate
	ldr	r0, .L200+136
	ldr	r1, .L200+8
	bl	prints
	mov	r0, #16
	mov	r1, #18
	bl	locate
	ldr	r0, .L200+148
	mov	r1, #992
	bl	prints
	sub	sp, fp, #4
	@ sp needed
	ldmfd	sp!, {fp, lr}
	bx	lr
.L201:
	.align	2
.L200:
	.word	.LC24
	.word	.LC25
	.word	32767
	.word	.LC26
	.word	.LC27
	.word	.LC28
	.word	.LC29
	.word	.LC30
	.word	32736
	.word	.LC31
	.word	.LC32
	.word	31775
	.word	.LC33
	.word	.LC34
	.word	.LC35
	.word	.LC36
	.word	1023
	.word	.LC37
	.word	.LC38
	.word	.LC39
	.word	.LC40
	.word	.LC41
	.word	.LC42
	.word	.LC43
	.word	.LC44
	.word	.LC45
	.word	.LC46
	.word	.LC13
	.word	.LC47
	.word	.LC14
	.word	.LC48
	.word	.LC12
	.word	.LC49
	.word	.LC15
	.word	.LC50
	.word	.LC51
	.word	.LC52
	.word	.LC53
	.size	display_title, .-display_title
	.section	.rodata
	.align	2
.LC54:
	.ascii	"PUSH ALL [\000"
	.align	2
.LC55:
	.ascii	"]\000"
	.text
	.align	2
	.global	begin_start
	.type	begin_start, %function
begin_start:
	@ Function supports interworking.
	@ args = 0, pretend = 0, frame = 16
	@ frame_needed = 1, uses_anonymous_args = 0
	stmfd	sp!, {fp, lr}
	add	fp, sp, #4
	sub	sp, sp, #16
	mov	r3, #0
	strh	r3, [fp, #-20]	@ movhi
	mov	r3, #0
	strh	r3, [fp, #-18]	@ movhi
	mov	r3, #0
	strh	r3, [fp, #-16]	@ movhi
	mov	r3, #0
	strh	r3, [fp, #-14]	@ movhi
	bl	display_title
.L208:
	ldrh	r3, [fp, #-6]	@ movhi
	strh	r3, [fp, #-12]	@ movhi
	bl	judge_key
	mov	r3, r0
	strh	r3, [fp, #-6]	@ movhi
	ldrh	r2, [fp, #-12]
	ldrh	r3, [fp, #-6]
	mov	r0, r2
	mov	r1, r3
	bl	judge_finger0
	mov	r3, r0
	strh	r3, [fp, #-20]	@ movhi
	ldrh	r2, [fp, #-12]
	ldrh	r3, [fp, #-6]
	mov	r0, r2
	mov	r1, r3
	bl	judge_finger1
	mov	r3, r0
	strh	r3, [fp, #-18]	@ movhi
	ldrh	r2, [fp, #-12]
	ldrh	r3, [fp, #-6]
	mov	r0, r2
	mov	r1, r3
	bl	judge_finger2
	mov	r3, r0
	strh	r3, [fp, #-16]	@ movhi
	ldrh	r2, [fp, #-12]
	ldrh	r3, [fp, #-6]
	mov	r0, r2
	mov	r1, r3
	bl	judge_finger3
	mov	r3, r0
	strh	r3, [fp, #-14]	@ movhi
	ldrh	r3, [fp, #-10]
	cmp	r3, #99
	bhi	.L203
	mvn	r3, #32768
	strh	r3, [fp, #-8]	@ movhi
	b	.L204
.L203:
	mov	r3, #31
	strh	r3, [fp, #-8]	@ movhi
.L204:
	ldrh	r3, [fp, #-10]
	add	r3, r3, #1
	strh	r3, [fp, #-10]	@ movhi
	ldrh	r3, [fp, #-10]
	cmp	r3, #200
	bne	.L205
	mov	r3, #0
	strh	r3, [fp, #-10]	@ movhi
.L205:
	mov	r0, #9
	mov	r1, #17
	bl	locate
	ldrh	r3, [fp, #-8]
	ldr	r0, .L210
	mov	r1, r3
	bl	prints
	mov	r0, #23
	mov	r1, #17
	bl	locate
	ldrh	r3, [fp, #-8]
	ldr	r0, .L210+4
	mov	r1, r3
	bl	prints
	sub	r3, fp, #20
	mov	r0, #19
	mov	r1, #17
	mov	r2, r3
	bl	display_button
	ldrh	r2, [fp, #-6]
	ldr	r3, .L210+8
	and	r3, r3, r2
	ldr	r2, .L210+8
	cmp	r3, r2
	bne	.L206
	b	.L209
.L206:
	b	.L208
.L209:
	sub	sp, fp, #4
	@ sp needed
	ldmfd	sp!, {fp, lr}
	bx	lr
.L211:
	.align	2
.L210:
	.word	.LC54
	.word	.LC55
	.word	771
	.size	begin_start, .-begin_start
	.section	.rodata
	.align	2
.LC56:
	.ascii	" Config is OK. Thank you!\000"
	.align	2
.LC57:
	.ascii	"     This is like a      \000"
	.align	2
.LC58:
	.ascii	"       RHYTHM GAME       \000"
	.align	2
.LC59:
	.ascii	"     Play a TUTORIAL?    \000"
	.align	2
.LC60:
	.ascii	"YES\000"
	.align	2
.LC61:
	.ascii	"NO\000"
	.align	2
.LC62:
	.ascii	"Sorry.The colddoor has been \000"
	.align	2
.LC63:
	.ascii	"lazy and the TUTORIAL is not\000"
	.align	2
.LC64:
	.ascii	"         ready yet!        \000"
	.align	2
.LC65:
	.ascii	"  It's a simple game with  \000"
	.align	2
.LC66:
	.ascii	"    only D,F,J,L button.   \000"
	.align	2
.LC67:
	.ascii	"   I hope you understand.  \000"
	.align	2
.LC68:
	.ascii	"next>>\000"
	.text
	.align	2
	.global	begin_tutorial
	.type	begin_tutorial, %function
begin_tutorial:
	@ Function supports interworking.
	@ args = 0, pretend = 0, frame = 16
	@ frame_needed = 1, uses_anonymous_args = 0
	stmfd	sp!, {fp, lr}
	add	fp, sp, #4
	sub	sp, sp, #16
	mov	r3, #1
	strh	r3, [fp, #-12]	@ movhi
	mov	r3, #30
	strh	r3, [fp, #-20]	@ movhi
	mov	r3, #10
	strh	r3, [fp, #-18]	@ movhi
	mov	r0, #0
	bl	paint_all
	mov	r0, #800
	bl	delay
	mov	r0, #2
	mov	r1, #4
	bl	locate
	ldr	r0, .L224
	ldr	r1, .L224+4
	bl	prints
	mov	r0, #500
	bl	delay
	mov	r0, #2
	mov	r1, #6
	bl	locate
	ldr	r0, .L224+8
	ldr	r1, .L224+4
	bl	prints
	mov	r0, #500
	bl	delay
	mov	r0, #2
	mov	r1, #8
	bl	locate
	ldr	r0, .L224+12
	ldr	r1, .L224+16
	bl	prints
	mov	r0, #500
	bl	delay
	mov	r0, #2
	mov	r1, #10
	bl	locate
	ldr	r0, .L224+20
	mov	r1, #992
	bl	prints
	mov	r0, #500
	bl	delay
.L219:
	ldrh	r3, [fp, #-6]	@ movhi
	strh	r3, [fp, #-14]	@ movhi
	bl	judge_key
	mov	r3, r0
	strh	r3, [fp, #-6]	@ movhi
	ldrh	r3, [fp, #-14]
	and	r3, r3, #32
	cmp	r3, #0
	bne	.L213
	ldrh	r3, [fp, #-6]
	and	r3, r3, #32
	cmp	r3, #0
	beq	.L213
	ldrh	r3, [fp, #-12]	@ movhi
	mvn	r3, r3
	strh	r3, [fp, #-12]	@ movhi
	b	.L214
.L213:
	ldrh	r3, [fp, #-14]
	and	r3, r3, #16
	cmp	r3, #0
	bne	.L214
	ldrh	r3, [fp, #-6]
	and	r3, r3, #16
	cmp	r3, #0
	beq	.L214
	ldrh	r3, [fp, #-12]	@ movhi
	mvn	r3, r3
	strh	r3, [fp, #-12]	@ movhi
.L214:
	ldrh	r3, [fp, #-12]
	cmp	r3, #1
	bne	.L215
	mov	r3, #31
	strh	r3, [fp, #-8]	@ movhi
	mvn	r3, #32768
	strh	r3, [fp, #-10]	@ movhi
	b	.L216
.L215:
	mvn	r3, #32768
	strh	r3, [fp, #-8]	@ movhi
	mov	r3, #31
	strh	r3, [fp, #-10]	@ movhi
.L216:
	mov	r0, #9
	mov	r1, #12
	bl	locate
	ldrh	r3, [fp, #-8]
	ldr	r0, .L224+24
	mov	r1, r3
	bl	prints
	mov	r0, #18
	mov	r1, #12
	bl	locate
	ldrh	r3, [fp, #-10]
	ldr	r0, .L224+28
	mov	r1, r3
	bl	prints
	ldrh	r3, [fp, #-6]
	and	r3, r3, #8
	cmp	r3, #0
	beq	.L217
	mov	r3, #0
	strh	r3, [fp, #-6]	@ movhi
	mov	r0, r0	@ nop
	ldrh	r3, [fp, #-12]
	cmp	r3, #1
	bne	.L212
	b	.L223
.L217:
	b	.L219
.L223:
	mov	r0, #0
	bl	paint_all
	mov	r0, #800
	bl	delay
	mov	r0, #1
	mov	r1, #4
	bl	locate
	ldr	r0, .L224+32
	ldr	r1, .L224+4
	bl	prints
	mov	r0, #500
	bl	delay
	mov	r0, #1
	mov	r1, #6
	bl	locate
	ldr	r0, .L224+36
	ldr	r1, .L224+4
	bl	prints
	mov	r0, #500
	bl	delay
	mov	r0, #1
	mov	r1, #8
	bl	locate
	ldr	r0, .L224+40
	ldr	r1, .L224+4
	bl	prints
	mov	r0, #500
	bl	delay
	mov	r0, #1
	mov	r1, #10
	bl	locate
	ldr	r0, .L224+44
	ldr	r1, .L224+4
	bl	prints
	mov	r0, #500
	bl	delay
	mov	r0, #1
	mov	r1, #12
	bl	locate
	ldr	r0, .L224+48
	ldr	r1, .L224+4
	bl	prints
	mov	r0, #500
	bl	delay
	mov	r0, #1
	mov	r1, #14
	bl	locate
	ldr	r0, .L224+52
	ldr	r1, .L224+4
	bl	prints
	mov	r0, #500
	bl	delay
.L222:
	mov	r3, #0
	strh	r3, [fp, #-14]	@ movhi
	mov	r3, #0
	strh	r3, [fp, #-6]	@ movhi
	ldrh	r3, [fp, #-6]	@ movhi
	strh	r3, [fp, #-14]	@ movhi
	bl	judge_key
	mov	r3, r0
	strh	r3, [fp, #-6]	@ movhi
	mov	r0, #22
	mov	r1, #16
	bl	locate
	ldr	r0, .L224+56
	ldr	r1, .L224+60
	bl	prints
	ldrh	r2, [fp, #-14]
	ldrh	r3, [fp, #-6]
	cmp	r2, r3
	beq	.L221
	b	.L212
.L221:
	b	.L222
.L212:
	sub	sp, fp, #4
	@ sp needed
	ldmfd	sp!, {fp, lr}
	bx	lr
.L225:
	.align	2
.L224:
	.word	.LC56
	.word	1023
	.word	.LC57
	.word	.LC58
	.word	32736
	.word	.LC59
	.word	.LC60
	.word	.LC61
	.word	.LC62
	.word	.LC63
	.word	.LC64
	.word	.LC65
	.word	.LC66
	.word	.LC67
	.word	.LC68
	.word	32767
	.size	begin_tutorial, .-begin_tutorial
	.section	.rodata
	.align	2
.LC69:
	.ascii	"HELP(exit with D or K)\000"
	.align	2
.LC70:
	.ascii	"<<prev\000"
	.align	2
.LC71:
	.ascii	"     <PATTERN>       \000"
	.align	2
.LC72:
	.ascii	"STAIRS               \000"
	.align	2
.LC73:
	.ascii	"NOTE come like stairs\000"
	.align	2
.LC74:
	.ascii	"                     \000"
	.align	2
.LC75:
	.ascii	"OTHERS               \000"
	.align	2
.LC76:
	.ascii	"Coming soon          \000"
	.align	2
.LC77:
	.ascii	"This is NOTE.\000"
	.align	2
.LC78:
	.ascii	"Press the button\000"
	.align	2
.LC79:
	.ascii	"for this.\000"
	.align	2
.LC80:
	.ascii	"      <SPEED>        \000"
	.align	2
.LC81:
	.ascii	"You can set the speed\000"
	.align	2
.LC82:
	.ascii	" at which NOTE move. \000"
	.align	2
.LC83:
	.ascii	"  Recommended SPEED  \000"
	.align	2
.LC84:
	.ascii	"        is 4         \000"
	.align	2
.LC85:
	.ascii	"     <INTERVAL>      \000"
	.align	2
.LC86:
	.ascii	"You can set interval \000"
	.align	2
.LC87:
	.ascii	" at which NOTE come. \000"
	.align	2
.LC88:
	.ascii	"Recommended INTERVAL \000"
	.align	2
.LC89:
	.ascii	"       is 1/6        \000"
	.align	2
.LC90:
	.ascii	"       <TIME>        \000"
	.align	2
.LC91:
	.ascii	"GAME time can be set.\000"
	.align	2
.LC92:
	.ascii	"If you survive TIME, \000"
	.align	2
.LC93:
	.ascii	"you will GAME CLEAR. \000"
	.align	2
.LC94:
	.ascii	"  Recommended TIME   \000"
	.align	2
.LC95:
	.ascii	"       is 30s        \000"
	.align	2
.LC96:
	.ascii	"OPTION\000"
	.text
	.align	2
	.global	display_help
	.type	display_help, %function
display_help:
	@ Function supports interworking.
	@ args = 0, pretend = 0, frame = 24
	@ frame_needed = 1, uses_anonymous_args = 0
	stmfd	sp!, {fp, lr}
	add	fp, sp, #4
	sub	sp, sp, #24
	mov	r3, #0
	strh	r3, [fp, #-14]	@ movhi
	mov	r3, #0
	strh	r3, [fp, #-10]	@ movhi
	mov	r3, #25
	strh	r3, [fp, #-16]	@ movhi
	mov	r3, #214
	strh	r3, [fp, #-18]	@ movhi
	mov	r3, #25
	strh	r3, [fp, #-20]	@ movhi
	mov	r3, #134
	strh	r3, [fp, #-22]	@ movhi
	mov	r3, #0
	strh	r3, [fp, #-12]	@ movhi
	mov	r3, #50
	strh	r3, [fp, #-28]	@ movhi
	mov	r3, #108
	strh	r3, [fp, #-26]	@ movhi
	ldrh	r3, [fp, #-20]	@ movhi
	strh	r3, [fp, #-8]	@ movhi
	b	.L227
.L233:
	ldrh	r2, [fp, #-16]
	ldrh	r3, [fp, #-8]
	mov	r0, r2
	mov	r1, r3
	ldr	r2, .L252
	bl	draw_point
	ldrh	r3, [fp, #-16]	@ movhi
	add	r3, r3, #1
	strh	r3, [fp, #-6]	@ movhi
	b	.L228
.L232:
	ldrh	r2, [fp, #-8]
	ldrh	r3, [fp, #-20]
	cmp	r2, r3
	beq	.L229
	ldrh	r2, [fp, #-8]
	ldrh	r3, [fp, #-22]
	cmp	r2, r3
	bne	.L230
.L229:
	ldrh	r2, [fp, #-6]
	ldrh	r3, [fp, #-8]
	mov	r0, r2
	mov	r1, r3
	ldr	r2, .L252
	bl	draw_point
	b	.L231
.L230:
	ldrh	r2, [fp, #-6]
	ldrh	r3, [fp, #-8]
	mov	r0, r2
	mov	r1, r3
	mov	r2, #0
	bl	draw_point
.L231:
	ldrh	r3, [fp, #-6]
	add	r3, r3, #1
	strh	r3, [fp, #-6]	@ movhi
.L228:
	ldrh	r2, [fp, #-6]
	ldrh	r3, [fp, #-18]
	sub	r3, r3, #1
	cmp	r2, r3
	ble	.L232
	ldrh	r2, [fp, #-18]
	ldrh	r3, [fp, #-8]
	mov	r0, r2
	mov	r1, r3
	ldr	r2, .L252
	bl	draw_point
	ldrh	r3, [fp, #-8]
	add	r3, r3, #1
	strh	r3, [fp, #-8]	@ movhi
.L227:
	ldrh	r2, [fp, #-8]
	ldrh	r3, [fp, #-22]
	cmp	r2, r3
	bls	.L233
	mov	r0, #4
	mov	r1, #3
	bl	locate
	ldr	r0, .L252+4
	ldr	r1, .L252
	bl	prints
	mov	r0, #22
	mov	r1, #16
	bl	locate
	ldr	r0, .L252+8
	ldr	r1, .L252
	bl	prints
	mov	r0, #3
	mov	r1, #16
	bl	locate
	ldr	r0, .L252+12
	ldr	r1, .L252
	bl	prints
.L244:
	ldrh	r3, [fp, #-10]	@ movhi
	strh	r3, [fp, #-14]	@ movhi
	bl	judge_key
	mov	r3, r0
	strh	r3, [fp, #-10]	@ movhi
	ldrh	r3, [fp, #-14]
	and	r3, r3, #32
	cmp	r3, #0
	bne	.L234
	ldrh	r3, [fp, #-10]
	and	r3, r3, #32
	cmp	r3, #0
	beq	.L234
	ldrh	r3, [fp, #-12]
	cmp	r3, #0
	bne	.L235
	mov	r3, #3
	strh	r3, [fp, #-12]	@ movhi
	b	.L237
.L235:
	ldrh	r3, [fp, #-12]
	sub	r3, r3, #1
	strh	r3, [fp, #-12]	@ movhi
	b	.L237
.L234:
	ldrh	r3, [fp, #-14]
	and	r3, r3, #16
	cmp	r3, #0
	bne	.L237
	ldrh	r3, [fp, #-10]
	and	r3, r3, #16
	cmp	r3, #0
	beq	.L237
	ldrh	r3, [fp, #-12]
	cmp	r3, #3
	bne	.L238
	mov	r3, #0
	strh	r3, [fp, #-12]	@ movhi
	b	.L237
.L238:
	ldrh	r3, [fp, #-12]
	add	r3, r3, #1
	strh	r3, [fp, #-12]	@ movhi
.L237:
	ldrh	r3, [fp, #-12]
	cmp	r3, #0
	bne	.L239
	mov	r0, #5
	mov	r1, #4
	bl	locate
	ldr	r0, .L252+16
	ldr	r1, .L252+20
	bl	prints
	mov	r0, #5
	mov	r1, #6
	bl	locate
	ldr	r0, .L252+24
	ldr	r1, .L252+28
	bl	prints
	mov	r0, #5
	mov	r1, #7
	bl	locate
	ldr	r0, .L252+32
	ldr	r1, .L252
	bl	prints
	mov	r0, #5
	mov	r1, #8
	bl	locate
	ldr	r0, .L252+36
	mov	r1, #992
	bl	prints
	mov	r0, #5
	mov	r1, #9
	bl	locate
	ldr	r0, .L252+40
	ldr	r1, .L252+28
	bl	prints
	mov	r0, #5
	mov	r1, #10
	bl	locate
	ldr	r0, .L252+44
	ldr	r1, .L252
	bl	prints
	mov	r0, #5
	mov	r1, #11
	bl	locate
	ldr	r0, .L252+36
	ldr	r1, .L252
	bl	prints
	ldr	r0, [fp, #-28]
	mov	r1, #0
	bl	draw_note
	mov	r0, #9
	mov	r1, #13
	bl	locate
	mov	r0, #27
	ldr	r1, .L252
	bl	print_ascii
	mov	r0, #10
	mov	r1, #13
	bl	locate
	ldr	r0, .L252+48
	ldr	r1, .L252
	bl	prints
	mov	r0, #10
	mov	r1, #14
	bl	locate
	ldr	r0, .L252+52
	ldr	r1, .L252
	bl	prints
	mov	r0, #10
	mov	r1, #15
	bl	locate
	ldr	r0, .L252+56
	ldr	r1, .L252
	bl	prints
	b	.L240
.L239:
	ldrh	r3, [fp, #-12]
	cmp	r3, #1
	bne	.L241
	mov	r0, #5
	mov	r1, #4
	bl	locate
	ldr	r0, .L252+60
	ldr	r1, .L252+20
	bl	prints
	mov	r0, #5
	mov	r1, #6
	bl	locate
	ldr	r0, .L252+64
	mov	r1, #992
	bl	prints
	mov	r0, #5
	mov	r1, #7
	bl	locate
	ldr	r0, .L252+68
	mov	r1, #992
	bl	prints
	mov	r0, #5
	mov	r1, #8
	bl	locate
	ldr	r0, .L252+36
	mov	r1, #992
	bl	prints
	mov	r0, #5
	mov	r1, #9
	bl	locate
	ldr	r0, .L252+72
	ldr	r1, .L252
	bl	prints
	mov	r0, #5
	mov	r1, #10
	bl	locate
	ldr	r0, .L252+76
	ldr	r1, .L252
	bl	prints
	mov	r0, #5
	mov	r1, #11
	bl	locate
	ldr	r0, .L252+36
	ldr	r1, .L252
	bl	prints
	b	.L240
.L241:
	ldrh	r3, [fp, #-12]
	cmp	r3, #2
	bne	.L242
	mov	r0, #5
	mov	r1, #4
	bl	locate
	ldr	r0, .L252+80
	ldr	r1, .L252+20
	bl	prints
	mov	r0, #5
	mov	r1, #6
	bl	locate
	ldr	r0, .L252+84
	mov	r1, #992
	bl	prints
	mov	r0, #5
	mov	r1, #7
	bl	locate
	ldr	r0, .L252+88
	mov	r1, #992
	bl	prints
	mov	r0, #5
	mov	r1, #8
	bl	locate
	ldr	r0, .L252+36
	mov	r1, #992
	bl	prints
	mov	r0, #5
	mov	r1, #9
	bl	locate
	ldr	r0, .L252+92
	ldr	r1, .L252
	bl	prints
	mov	r0, #5
	mov	r1, #10
	bl	locate
	ldr	r0, .L252+96
	ldr	r1, .L252
	bl	prints
	mov	r0, #5
	mov	r1, #11
	bl	locate
	ldr	r0, .L252+36
	ldr	r1, .L252
	bl	prints
	b	.L240
.L242:
	ldrh	r3, [fp, #-12]
	cmp	r3, #3
	bne	.L240
	mov	r0, #5
	mov	r1, #4
	bl	locate
	ldr	r0, .L252+100
	ldr	r1, .L252+20
	bl	prints
	mov	r0, #5
	mov	r1, #6
	bl	locate
	ldr	r0, .L252+104
	mov	r1, #992
	bl	prints
	mov	r0, #5
	mov	r1, #7
	bl	locate
	ldr	r0, .L252+108
	mov	r1, #992
	bl	prints
	mov	r0, #5
	mov	r1, #8
	bl	locate
	ldr	r0, .L252+112
	mov	r1, #992
	bl	prints
	mov	r0, #5
	mov	r1, #9
	bl	locate
	ldr	r0, .L252+36
	ldr	r1, .L252
	bl	prints
	mov	r0, #5
	mov	r1, #10
	bl	locate
	ldr	r0, .L252+116
	ldr	r1, .L252
	bl	prints
	mov	r0, #5
	mov	r1, #11
	bl	locate
	ldr	r0, .L252+120
	ldr	r1, .L252
	bl	prints
.L240:
	ldrh	r3, [fp, #-10]
	and	r3, r3, #512
	cmp	r3, #0
	bne	.L243
	ldrh	r3, [fp, #-10]
	and	r3, r3, #256
	cmp	r3, #0
	bne	.L243
	b	.L244
.L243:
	mov	r3, #12
	strh	r3, [fp, #-16]	@ movhi
	mov	r3, #227
	strh	r3, [fp, #-18]	@ movhi
	mov	r3, #12
	strh	r3, [fp, #-20]	@ movhi
	mov	r3, #147
	strh	r3, [fp, #-22]	@ movhi
	mov	r0, #31744
	bl	paint_all
	ldrh	r3, [fp, #-20]	@ movhi
	strh	r3, [fp, #-8]	@ movhi
	b	.L245
.L251:
	ldrh	r2, [fp, #-16]
	ldrh	r3, [fp, #-8]
	mov	r0, r2
	mov	r1, r3
	ldr	r2, .L252
	bl	draw_point
	ldrh	r3, [fp, #-16]	@ movhi
	add	r3, r3, #1
	strh	r3, [fp, #-6]	@ movhi
	b	.L246
.L250:
	ldrh	r2, [fp, #-8]
	ldrh	r3, [fp, #-20]
	cmp	r2, r3
	beq	.L247
	ldrh	r2, [fp, #-8]
	ldrh	r3, [fp, #-22]
	cmp	r2, r3
	bne	.L248
.L247:
	ldrh	r2, [fp, #-6]
	ldrh	r3, [fp, #-8]
	mov	r0, r2
	mov	r1, r3
	ldr	r2, .L252
	bl	draw_point
	b	.L249
.L248:
	ldrh	r2, [fp, #-6]
	ldrh	r3, [fp, #-8]
	mov	r0, r2
	mov	r1, r3
	mov	r2, #0
	bl	draw_point
.L249:
	ldrh	r3, [fp, #-6]
	add	r3, r3, #1
	strh	r3, [fp, #-6]	@ movhi
.L246:
	ldrh	r2, [fp, #-6]
	ldrh	r3, [fp, #-18]
	sub	r3, r3, #1
	cmp	r2, r3
	ble	.L250
	ldrh	r2, [fp, #-18]
	ldrh	r3, [fp, #-8]
	mov	r0, r2
	mov	r1, r3
	ldr	r2, .L252
	bl	draw_point
	ldrh	r3, [fp, #-8]
	add	r3, r3, #1
	strh	r3, [fp, #-8]	@ movhi
.L245:
	ldrh	r2, [fp, #-8]
	ldrh	r3, [fp, #-22]
	cmp	r2, r3
	bls	.L251
	mov	r0, #2
	mov	r1, #1
	bl	locate
	ldr	r0, .L252+124
	ldr	r1, .L252
	bl	prints
	sub	sp, fp, #4
	@ sp needed
	ldmfd	sp!, {fp, lr}
	bx	lr
.L253:
	.align	2
.L252:
	.word	32767
	.word	.LC69
	.word	.LC68
	.word	.LC70
	.word	.LC71
	.word	1023
	.word	.LC72
	.word	32736
	.word	.LC73
	.word	.LC74
	.word	.LC75
	.word	.LC76
	.word	.LC77
	.word	.LC78
	.word	.LC79
	.word	.LC80
	.word	.LC81
	.word	.LC82
	.word	.LC83
	.word	.LC84
	.word	.LC85
	.word	.LC86
	.word	.LC87
	.word	.LC88
	.word	.LC89
	.word	.LC90
	.word	.LC91
	.word	.LC92
	.word	.LC93
	.word	.LC94
	.word	.LC95
	.word	.LC96
	.size	display_help, .-display_help
	.section	.rodata
	.align	2
.LC97:
	.ascii	"Push F or J to see HELP\000"
	.align	2
.LC98:
	.ascii	"PATTERN\000"
	.align	2
.LC99:
	.ascii	"<\000"
	.align	2
.LC100:
	.ascii	">\000"
	.align	2
.LC101:
	.ascii	" STAIRS \000"
	.align	2
.LC102:
	.ascii	" STREAM \000"
	.align	2
.LC103:
	.ascii	"  JACK  \000"
	.align	2
.LC104:
	.ascii	"  TECH  \000"
	.align	2
.LC105:
	.ascii	"SPEED\000"
	.align	2
.LC106:
	.ascii	"   1   \000"
	.align	2
.LC107:
	.ascii	"   2   \000"
	.align	2
.LC108:
	.ascii	"   3   \000"
	.align	2
.LC109:
	.ascii	"   4   \000"
	.align	2
.LC110:
	.ascii	"   6   \000"
	.align	2
.LC111:
	.ascii	"   8   \000"
	.align	2
.LC112:
	.ascii	"   9   \000"
	.align	2
.LC113:
	.ascii	"INTERVAL\000"
	.align	2
.LC114:
	.ascii	"  1/2  \000"
	.align	2
.LC115:
	.ascii	"  1/4  \000"
	.align	2
.LC116:
	.ascii	"  1/6  \000"
	.align	2
.LC117:
	.ascii	"  1/8  \000"
	.align	2
.LC118:
	.ascii	" 1/12  \000"
	.align	2
.LC119:
	.ascii	" 1/16  \000"
	.align	2
.LC120:
	.ascii	" 1/24  \000"
	.align	2
.LC121:
	.ascii	" 1/32  \000"
	.align	2
.LC122:
	.ascii	" 1/64  \000"
	.align	2
.LC123:
	.ascii	"TIME\000"
	.align	2
.LC124:
	.ascii	"  30s  \000"
	.align	2
.LC125:
	.ascii	"  60s  \000"
	.align	2
.LC126:
	.ascii	"  90s  \000"
	.align	2
.LC127:
	.ascii	" 120s  \000"
	.align	2
.LC128:
	.ascii	"endless\000"
	.align	2
.LC129:
	.ascii	"START!\000"
	.align	2
.LC130:
	.ascii	"Error:\000"
	.align	2
.LC131:
	.ascii	"PATTERN STREAM\000"
	.align	2
.LC132:
	.ascii	"is coming soon!\000"
	.align	2
.LC133:
	.ascii	"PATTERN JACK   \000"
	.align	2
.LC134:
	.ascii	"PATTERN TECH   \000"
	.text
	.align	2
	.global	begin_op
	.type	begin_op, %function
begin_op:
	@ Function supports interworking.
	@ args = 0, pretend = 0, frame = 72
	@ frame_needed = 1, uses_anonymous_args = 0
	stmfd	sp!, {fp, lr}
	add	fp, sp, #4
	sub	sp, sp, #72
	mov	r3, #0
	strh	r3, [fp, #-16]	@ movhi
	mov	r3, #0
	strh	r3, [fp, #-12]	@ movhi
	mov	r3, #12
	strh	r3, [fp, #-18]	@ movhi
	mov	r3, #227
	strh	r3, [fp, #-20]	@ movhi
	mov	r3, #12
	strh	r3, [fp, #-22]	@ movhi
	mov	r3, #147
	strh	r3, [fp, #-24]	@ movhi
	mov	r3, #0
	strh	r3, [fp, #-14]	@ movhi
	mov	r3, #0
	strh	r3, [fp, #-6]	@ movhi
	b	.L255
.L256:
	ldrh	r3, [fp, #-6]
	mov	r3, r3, asl #1
	sub	r2, fp, #4
	add	r3, r2, r3
	sub	r3, r3, #32
	mov	r2, #0
	strh	r2, [r3]	@ movhi
	ldrh	r3, [fp, #-6]
	add	r3, r3, #1
	strh	r3, [fp, #-6]	@ movhi
.L255:
	ldrh	r3, [fp, #-6]
	cmp	r3, #3
	bls	.L256
	mov	r3, #31744
	strh	r3, [fp, #-26]	@ movhi
	mov	r3, #0
	strh	r3, [fp, #-6]	@ movhi
	b	.L257
.L258:
	ldrh	r3, [fp, #-6]
	mov	r3, r3, asl #1
	sub	r2, fp, #4
	add	r3, r2, r3
	sub	r3, r3, #44
	mov	r2, #0
	strh	r2, [r3]	@ movhi
	ldrh	r3, [fp, #-6]
	mov	r3, r3, asl #1
	sub	r2, fp, #4
	add	r3, r2, r3
	sub	r3, r3, #56
	mov	r2, #0
	strh	r2, [r3]	@ movhi
	ldrh	r3, [fp, #-6]
	mov	r3, r3, asl #1
	sub	r2, fp, #4
	add	r3, r2, r3
	sub	r3, r3, #68
	mov	r2, #0
	strh	r2, [r3]	@ movhi
	ldrh	r3, [fp, #-6]
	add	r3, r3, #1
	strh	r3, [fp, #-6]	@ movhi
.L257:
	ldrh	r3, [fp, #-6]
	cmp	r3, #4
	bls	.L258
	mov	r0, #31744
	bl	paint_all
	ldrh	r3, [fp, #-22]	@ movhi
	strh	r3, [fp, #-10]	@ movhi
	b	.L259
.L265:
	ldrh	r2, [fp, #-18]
	ldrh	r3, [fp, #-10]
	mov	r0, r2
	mov	r1, r3
	ldr	r2, .L346
	bl	draw_point
	ldrh	r3, [fp, #-18]	@ movhi
	add	r3, r3, #1
	strh	r3, [fp, #-8]	@ movhi
	b	.L260
.L264:
	ldrh	r2, [fp, #-10]
	ldrh	r3, [fp, #-22]
	cmp	r2, r3
	beq	.L261
	ldrh	r2, [fp, #-10]
	ldrh	r3, [fp, #-24]
	cmp	r2, r3
	bne	.L262
.L261:
	ldrh	r2, [fp, #-8]
	ldrh	r3, [fp, #-10]
	mov	r0, r2
	mov	r1, r3
	ldr	r2, .L346
	bl	draw_point
	b	.L263
.L262:
	ldrh	r2, [fp, #-8]
	ldrh	r3, [fp, #-10]
	mov	r0, r2
	mov	r1, r3
	mov	r2, #0
	bl	draw_point
.L263:
	ldrh	r3, [fp, #-8]
	add	r3, r3, #1
	strh	r3, [fp, #-8]	@ movhi
.L260:
	ldrh	r2, [fp, #-8]
	ldrh	r3, [fp, #-20]
	sub	r3, r3, #1
	cmp	r2, r3
	ble	.L264
	ldrh	r2, [fp, #-20]
	ldrh	r3, [fp, #-10]
	mov	r0, r2
	mov	r1, r3
	ldr	r2, .L346
	bl	draw_point
	ldrh	r3, [fp, #-10]
	add	r3, r3, #1
	strh	r3, [fp, #-10]	@ movhi
.L259:
	ldrh	r2, [fp, #-10]
	ldrh	r3, [fp, #-24]
	cmp	r2, r3
	bls	.L265
	mov	r0, #2
	mov	r1, #1
	bl	locate
	ldr	r0, .L346+4
	ldr	r1, .L346
	bl	prints
.L342:
	ldrh	r3, [fp, #-12]	@ movhi
	strh	r3, [fp, #-16]	@ movhi
	bl	judge_key
	mov	r3, r0
	strh	r3, [fp, #-12]	@ movhi
	mov	r3, #31744
	strh	r3, [fp, #-26]	@ movhi
	mov	r3, #0
	strh	r3, [fp, #-6]	@ movhi
	b	.L266
.L267:
	ldrh	r3, [fp, #-6]
	mov	r3, r3, asl #1
	sub	r2, fp, #4
	add	r3, r2, r3
	sub	r3, r3, #44
	mvn	r2, #32768
	strh	r2, [r3]	@ movhi
	ldrh	r3, [fp, #-6]
	mov	r3, r3, asl #1
	sub	r2, fp, #4
	add	r3, r2, r3
	sub	r3, r3, #56
	mvn	r2, #32768
	strh	r2, [r3]	@ movhi
	ldrh	r3, [fp, #-6]
	mov	r3, r3, asl #1
	sub	r2, fp, #4
	add	r3, r2, r3
	sub	r3, r3, #68
	mvn	r2, #32768
	strh	r2, [r3]	@ movhi
	ldrh	r3, [fp, #-6]
	add	r3, r3, #1
	strh	r3, [fp, #-6]	@ movhi
.L266:
	ldrh	r3, [fp, #-6]
	cmp	r3, #4
	bls	.L267
	ldrh	r3, [fp, #-16]
	and	r3, r3, #64
	cmp	r3, #0
	bne	.L268
	ldrh	r3, [fp, #-12]
	and	r3, r3, #64
	cmp	r3, #0
	beq	.L268
	ldrh	r3, [fp, #-14]
	cmp	r3, #0
	beq	.L268
	ldrh	r3, [fp, #-14]
	sub	r3, r3, #1
	strh	r3, [fp, #-14]	@ movhi
.L268:
	ldrh	r3, [fp, #-16]
	and	r3, r3, #128
	cmp	r3, #0
	bne	.L269
	ldrh	r3, [fp, #-12]
	and	r3, r3, #128
	cmp	r3, #0
	beq	.L269
	ldrh	r3, [fp, #-14]
	cmp	r3, #4
	beq	.L269
	ldrh	r3, [fp, #-14]
	add	r3, r3, #1
	strh	r3, [fp, #-14]	@ movhi
.L269:
	ldrh	r3, [fp, #-14]
	cmp	r3, #4
	beq	.L270
	ldrh	r3, [fp, #-14]
	mov	r3, r3, asl #1
	sub	r2, fp, #4
	add	r3, r2, r3
	sub	r3, r3, #44
	mov	r2, #992
	strh	r2, [r3]	@ movhi
	ldrh	r3, [fp, #-14]
	mov	r3, r3, asl #1
	sub	r2, fp, #4
	add	r3, r2, r3
	sub	r3, r3, #56
	mov	r2, #992
	strh	r2, [r3]	@ movhi
	ldrh	r3, [fp, #-14]
	mov	r3, r3, asl #1
	sub	r2, fp, #4
	add	r3, r2, r3
	sub	r3, r3, #68
	mov	r2, #992
	strh	r2, [r3]	@ movhi
	b	.L271
.L270:
	ldrh	r3, [fp, #-14]
	mov	r3, r3, asl #1
	sub	r2, fp, #4
	add	r3, r2, r3
	sub	r3, r3, #44
	mov	r2, #31
	strh	r2, [r3]	@ movhi
	ldrh	r3, [fp, #-14]
	mov	r3, r3, asl #1
	sub	r2, fp, #4
	add	r3, r2, r3
	sub	r3, r3, #56
	mov	r2, #31
	strh	r2, [r3]	@ movhi
	ldrh	r3, [fp, #-14]
	mov	r3, r3, asl #1
	sub	r2, fp, #4
	add	r3, r2, r3
	sub	r3, r3, #68
	mov	r2, #31
	strh	r2, [r3]	@ movhi
.L271:
	ldrh	r3, [fp, #-16]
	and	r3, r3, #32
	cmp	r3, #0
	bne	.L272
	ldrh	r3, [fp, #-12]
	and	r3, r3, #32
	cmp	r3, #0
	beq	.L272
	ldrh	r3, [fp, #-14]
	cmp	r3, #3
	ldrls	pc, [pc, r3, asl #2]
	b	.L272
.L274:
	.word	.L273
	.word	.L275
	.word	.L276
	.word	.L277
.L273:
	ldrh	r3, [fp, #-14]
	mov	r3, r3, asl #1
	sub	r2, fp, #4
	add	r3, r2, r3
	sub	r3, r3, #32
	ldrh	r3, [r3]
	cmp	r3, #0
	bne	.L278
	ldrh	r3, [fp, #-14]
	mov	r3, r3, asl #1
	sub	r2, fp, #4
	add	r3, r2, r3
	sub	r3, r3, #32
	mov	r2, #3
	strh	r2, [r3]	@ movhi
	b	.L272
.L278:
	ldrh	r3, [fp, #-14]
	mov	r2, r3, asl #1
	sub	r1, fp, #4
	add	r2, r1, r2
	sub	r2, r2, #32
	ldrh	r2, [r2]
	sub	r2, r2, #1
	mov	r2, r2, asl #16
	mov	r2, r2, lsr #16
	mov	r3, r3, asl #1
	sub	r1, fp, #4
	add	r3, r1, r3
	sub	r3, r3, #32
	strh	r2, [r3]	@ movhi
	b	.L272
.L275:
	ldrh	r3, [fp, #-14]
	mov	r3, r3, asl #1
	sub	r2, fp, #4
	add	r3, r2, r3
	sub	r3, r3, #32
	ldrh	r3, [r3]
	cmp	r3, #0
	bne	.L280
	ldrh	r3, [fp, #-14]
	mov	r3, r3, asl #1
	sub	r2, fp, #4
	add	r3, r2, r3
	sub	r3, r3, #32
	mov	r2, #6
	strh	r2, [r3]	@ movhi
	b	.L272
.L280:
	ldrh	r3, [fp, #-14]
	mov	r2, r3, asl #1
	sub	r1, fp, #4
	add	r2, r1, r2
	sub	r2, r2, #32
	ldrh	r2, [r2]
	sub	r2, r2, #1
	mov	r2, r2, asl #16
	mov	r2, r2, lsr #16
	mov	r3, r3, asl #1
	sub	r1, fp, #4
	add	r3, r1, r3
	sub	r3, r3, #32
	strh	r2, [r3]	@ movhi
	b	.L272
.L276:
	ldrh	r3, [fp, #-14]
	mov	r3, r3, asl #1
	sub	r2, fp, #4
	add	r3, r2, r3
	sub	r3, r3, #32
	ldrh	r3, [r3]
	cmp	r3, #0
	bne	.L282
	ldrh	r3, [fp, #-14]
	mov	r3, r3, asl #1
	sub	r2, fp, #4
	add	r3, r2, r3
	sub	r3, r3, #32
	mov	r2, #8
	strh	r2, [r3]	@ movhi
	b	.L272
.L282:
	ldrh	r3, [fp, #-14]
	mov	r2, r3, asl #1
	sub	r1, fp, #4
	add	r2, r1, r2
	sub	r2, r2, #32
	ldrh	r2, [r2]
	sub	r2, r2, #1
	mov	r2, r2, asl #16
	mov	r2, r2, lsr #16
	mov	r3, r3, asl #1
	sub	r1, fp, #4
	add	r3, r1, r3
	sub	r3, r3, #32
	strh	r2, [r3]	@ movhi
	b	.L272
.L277:
	ldrh	r3, [fp, #-14]
	mov	r3, r3, asl #1
	sub	r2, fp, #4
	add	r3, r2, r3
	sub	r3, r3, #32
	ldrh	r3, [r3]
	cmp	r3, #0
	bne	.L284
	ldrh	r3, [fp, #-14]
	mov	r3, r3, asl #1
	sub	r2, fp, #4
	add	r3, r2, r3
	sub	r3, r3, #32
	mov	r2, #4
	strh	r2, [r3]	@ movhi
	b	.L344
.L284:
	ldrh	r3, [fp, #-14]
	mov	r2, r3, asl #1
	sub	r1, fp, #4
	add	r2, r1, r2
	sub	r2, r2, #32
	ldrh	r2, [r2]
	sub	r2, r2, #1
	mov	r2, r2, asl #16
	mov	r2, r2, lsr #16
	mov	r3, r3, asl #1
	sub	r1, fp, #4
	add	r3, r1, r3
	sub	r3, r3, #32
	strh	r2, [r3]	@ movhi
.L344:
	mov	r0, r0	@ nop
.L272:
	ldrh	r3, [fp, #-12]
	and	r3, r3, #32
	cmp	r3, #0
	beq	.L286
	ldrh	r3, [fp, #-14]
	mov	r3, r3, asl #1
	sub	r2, fp, #4
	add	r3, r2, r3
	sub	r3, r3, #56
	mov	r2, #31
	strh	r2, [r3]	@ movhi
.L286:
	ldrh	r3, [fp, #-16]
	and	r3, r3, #16
	cmp	r3, #0
	bne	.L287
	ldrh	r3, [fp, #-12]
	and	r3, r3, #16
	cmp	r3, #0
	beq	.L287
	ldrh	r3, [fp, #-14]
	cmp	r3, #3
	ldrls	pc, [pc, r3, asl #2]
	b	.L287
.L289:
	.word	.L288
	.word	.L290
	.word	.L291
	.word	.L292
.L288:
	ldrh	r3, [fp, #-14]
	mov	r3, r3, asl #1
	sub	r2, fp, #4
	add	r3, r2, r3
	sub	r3, r3, #32
	ldrh	r3, [r3]
	cmp	r3, #3
	bne	.L293
	ldrh	r3, [fp, #-14]
	mov	r3, r3, asl #1
	sub	r2, fp, #4
	add	r3, r2, r3
	sub	r3, r3, #32
	mov	r2, #0
	strh	r2, [r3]	@ movhi
	b	.L287
.L293:
	ldrh	r3, [fp, #-14]
	mov	r2, r3, asl #1
	sub	r1, fp, #4
	add	r2, r1, r2
	sub	r2, r2, #32
	ldrh	r2, [r2]
	add	r2, r2, #1
	mov	r2, r2, asl #16
	mov	r2, r2, lsr #16
	mov	r3, r3, asl #1
	sub	r1, fp, #4
	add	r3, r1, r3
	sub	r3, r3, #32
	strh	r2, [r3]	@ movhi
	b	.L287
.L290:
	ldrh	r3, [fp, #-14]
	mov	r3, r3, asl #1
	sub	r2, fp, #4
	add	r3, r2, r3
	sub	r3, r3, #32
	ldrh	r3, [r3]
	cmp	r3, #6
	bne	.L295
	ldrh	r3, [fp, #-14]
	mov	r3, r3, asl #1
	sub	r2, fp, #4
	add	r3, r2, r3
	sub	r3, r3, #32
	mov	r2, #0
	strh	r2, [r3]	@ movhi
	b	.L287
.L295:
	ldrh	r3, [fp, #-14]
	mov	r2, r3, asl #1
	sub	r1, fp, #4
	add	r2, r1, r2
	sub	r2, r2, #32
	ldrh	r2, [r2]
	add	r2, r2, #1
	mov	r2, r2, asl #16
	mov	r2, r2, lsr #16
	mov	r3, r3, asl #1
	sub	r1, fp, #4
	add	r3, r1, r3
	sub	r3, r3, #32
	strh	r2, [r3]	@ movhi
	b	.L287
.L291:
	ldrh	r3, [fp, #-14]
	mov	r3, r3, asl #1
	sub	r2, fp, #4
	add	r3, r2, r3
	sub	r3, r3, #32
	ldrh	r3, [r3]
	cmp	r3, #8
	bne	.L297
	ldrh	r3, [fp, #-14]
	mov	r3, r3, asl #1
	sub	r2, fp, #4
	add	r3, r2, r3
	sub	r3, r3, #32
	mov	r2, #0
	strh	r2, [r3]	@ movhi
	b	.L287
.L297:
	ldrh	r3, [fp, #-14]
	mov	r2, r3, asl #1
	sub	r1, fp, #4
	add	r2, r1, r2
	sub	r2, r2, #32
	ldrh	r2, [r2]
	add	r2, r2, #1
	mov	r2, r2, asl #16
	mov	r2, r2, lsr #16
	mov	r3, r3, asl #1
	sub	r1, fp, #4
	add	r3, r1, r3
	sub	r3, r3, #32
	strh	r2, [r3]	@ movhi
	b	.L287
.L292:
	ldrh	r3, [fp, #-14]
	mov	r3, r3, asl #1
	sub	r2, fp, #4
	add	r3, r2, r3
	sub	r3, r3, #32
	ldrh	r3, [r3]
	cmp	r3, #4
	bne	.L299
	ldrh	r3, [fp, #-14]
	mov	r3, r3, asl #1
	sub	r2, fp, #4
	add	r3, r2, r3
	sub	r3, r3, #32
	mov	r2, #0
	strh	r2, [r3]	@ movhi
	b	.L345
.L299:
	ldrh	r3, [fp, #-14]
	mov	r2, r3, asl #1
	sub	r1, fp, #4
	add	r2, r1, r2
	sub	r2, r2, #32
	ldrh	r2, [r2]
	add	r2, r2, #1
	mov	r2, r2, asl #16
	mov	r2, r2, lsr #16
	mov	r3, r3, asl #1
	sub	r1, fp, #4
	add	r3, r1, r3
	sub	r3, r3, #32
	strh	r2, [r3]	@ movhi
.L345:
	mov	r0, r0	@ nop
.L287:
	ldrh	r3, [fp, #-12]
	and	r3, r3, #16
	cmp	r3, #0
	beq	.L301
	ldrh	r3, [fp, #-14]
	mov	r3, r3, asl #1
	sub	r2, fp, #4
	add	r3, r2, r3
	sub	r3, r3, #68
	mov	r2, #31
	strh	r2, [r3]	@ movhi
.L301:
	mov	r0, #4
	mov	r1, #3
	bl	locate
	ldrh	r3, [fp, #-26]
	ldr	r0, .L346+8
	mov	r1, r3
	bl	prints
	mov	r0, #4
	mov	r1, #6
	bl	locate
	ldrh	r3, [fp, #-48]
	ldr	r0, .L346+12
	mov	r1, r3
	bl	prints
	mov	r0, #15
	mov	r1, #6
	bl	locate
	ldrh	r3, [fp, #-60]
	ldr	r0, .L346+16
	mov	r1, r3
	bl	prints
	mov	r0, #24
	mov	r1, #6
	bl	locate
	ldrh	r3, [fp, #-72]
	ldr	r0, .L346+20
	mov	r1, r3
	bl	prints
	ldrh	r3, [fp, #-36]
	cmp	r3, #3
	ldrls	pc, [pc, r3, asl #2]
	b	.L302
.L304:
	.word	.L303
	.word	.L305
	.word	.L306
	.word	.L307
.L303:
	mov	r0, #16
	mov	r1, #6
	bl	locate
	ldrh	r3, [fp, #-48]
	ldr	r0, .L346+24
	mov	r1, r3
	bl	prints
	ldr	r3, .L346+28
	mov	r2, #0
	strh	r2, [r3]	@ movhi
	b	.L302
.L305:
	mov	r0, #16
	mov	r1, #6
	bl	locate
	ldrh	r3, [fp, #-48]
	ldr	r0, .L346+32
	mov	r1, r3
	bl	prints
	ldr	r3, .L346+28
	mov	r2, #1
	strh	r2, [r3]	@ movhi
	b	.L302
.L306:
	mov	r0, #16
	mov	r1, #6
	bl	locate
	ldrh	r3, [fp, #-48]
	ldr	r0, .L346+36
	mov	r1, r3
	bl	prints
	ldr	r3, .L346+28
	mov	r2, #2
	strh	r2, [r3]	@ movhi
	b	.L302
.L307:
	mov	r0, #16
	mov	r1, #6
	bl	locate
	ldrh	r3, [fp, #-48]
	ldr	r0, .L346+40
	mov	r1, r3
	bl	prints
	ldr	r3, .L346+28
	mov	r2, #3
	strh	r2, [r3]	@ movhi
	mov	r0, r0	@ nop
.L302:
	mov	r0, #4
	mov	r1, #8
	bl	locate
	ldrh	r3, [fp, #-46]
	ldr	r0, .L346+44
	mov	r1, r3
	bl	prints
	mov	r0, #15
	mov	r1, #8
	bl	locate
	ldrh	r3, [fp, #-58]
	ldr	r0, .L346+16
	mov	r1, r3
	bl	prints
	mov	r0, #23
	mov	r1, #8
	bl	locate
	ldrh	r3, [fp, #-70]
	ldr	r0, .L346+20
	mov	r1, r3
	bl	prints
	ldrh	r3, [fp, #-34]
	cmp	r3, #6
	ldrls	pc, [pc, r3, asl #2]
	b	.L308
.L310:
	.word	.L309
	.word	.L311
	.word	.L312
	.word	.L313
	.word	.L314
	.word	.L315
	.word	.L316
.L309:
	mov	r0, #16
	mov	r1, #8
	bl	locate
	ldrh	r3, [fp, #-46]
	ldr	r0, .L346+48
	mov	r1, r3
	bl	prints
	ldr	r3, .L346+52
	mov	r2, #1
	strh	r2, [r3]	@ movhi
	b	.L308
.L311:
	mov	r0, #16
	mov	r1, #8
	bl	locate
	ldrh	r3, [fp, #-46]
	ldr	r0, .L346+56
	mov	r1, r3
	bl	prints
	ldr	r3, .L346+52
	mov	r2, #3
	strh	r2, [r3]	@ movhi
	b	.L308
.L312:
	mov	r0, #16
	mov	r1, #8
	bl	locate
	ldrh	r3, [fp, #-46]
	ldr	r0, .L346+60
	mov	r1, r3
	bl	prints
	ldr	r3, .L346+52
	mov	r2, #3
	strh	r2, [r3]	@ movhi
	b	.L308
.L313:
	mov	r0, #16
	mov	r1, #8
	bl	locate
	ldrh	r3, [fp, #-46]
	ldr	r0, .L346+64
	mov	r1, r3
	bl	prints
	ldr	r3, .L346+52
	mov	r2, #4
	strh	r2, [r3]	@ movhi
	b	.L308
.L314:
	mov	r0, #16
	mov	r1, #8
	bl	locate
	ldrh	r3, [fp, #-46]
	ldr	r0, .L346+68
	mov	r1, r3
	bl	prints
	ldr	r3, .L346+52
	mov	r2, #6
	strh	r2, [r3]	@ movhi
	b	.L308
.L315:
	mov	r0, #16
	mov	r1, #8
	bl	locate
	ldrh	r3, [fp, #-46]
	ldr	r0, .L346+72
	mov	r1, r3
	bl	prints
	ldr	r3, .L346+52
	mov	r2, #8
	strh	r2, [r3]	@ movhi
	b	.L308
.L316:
	mov	r0, #16
	mov	r1, #8
	bl	locate
	ldrh	r3, [fp, #-46]
	ldr	r0, .L346+76
	mov	r1, r3
	bl	prints
	ldr	r3, .L346+52
	mov	r2, #9
	strh	r2, [r3]	@ movhi
	mov	r0, r0	@ nop
.L308:
	mov	r0, #4
	mov	r1, #10
	bl	locate
	ldrh	r3, [fp, #-44]
	ldr	r0, .L346+80
	mov	r1, r3
	bl	prints
	mov	r0, #15
	mov	r1, #10
	bl	locate
	ldrh	r3, [fp, #-56]
	ldr	r0, .L346+16
	mov	r1, r3
	bl	prints
	mov	r0, #23
	mov	r1, #10
	bl	locate
	ldrh	r3, [fp, #-68]
	ldr	r0, .L346+20
	mov	r1, r3
	bl	prints
	ldrh	r3, [fp, #-32]
	cmp	r3, #8
	ldrls	pc, [pc, r3, asl #2]
	b	.L317
.L319:
	.word	.L318
	.word	.L320
	.word	.L321
	.word	.L322
	.word	.L323
	.word	.L324
	.word	.L325
	.word	.L326
	.word	.L327
.L318:
	mov	r0, #16
	mov	r1, #10
	bl	locate
	ldrh	r3, [fp, #-44]
	ldr	r0, .L346+84
	mov	r1, r3
	bl	prints
	ldr	r3, .L346+88
	mov	r2, #32
	strh	r2, [r3]	@ movhi
	b	.L317
.L320:
	mov	r0, #16
	mov	r1, #10
	bl	locate
	ldrh	r3, [fp, #-44]
	ldr	r0, .L346+92
	mov	r1, r3
	bl	prints
	ldr	r3, .L346+88
	mov	r2, #16
	strh	r2, [r3]	@ movhi
	b	.L317
.L321:
	mov	r0, #16
	mov	r1, #10
	bl	locate
	ldrh	r3, [fp, #-44]
	ldr	r0, .L346+96
	mov	r1, r3
	bl	prints
	ldr	r3, .L346+88
	mov	r2, #12
	strh	r2, [r3]	@ movhi
	b	.L317
.L322:
	mov	r0, #16
	mov	r1, #10
	bl	locate
	ldrh	r3, [fp, #-44]
	ldr	r0, .L346+100
	mov	r1, r3
	bl	prints
	ldr	r3, .L346+88
	mov	r2, #8
	strh	r2, [r3]	@ movhi
	b	.L317
.L323:
	mov	r0, #16
	mov	r1, #10
	bl	locate
	ldrh	r3, [fp, #-44]
	ldr	r0, .L346+104
	mov	r1, r3
	bl	prints
	ldr	r3, .L346+88
	mov	r2, #6
	strh	r2, [r3]	@ movhi
	b	.L317
.L324:
	mov	r0, #16
	mov	r1, #10
	bl	locate
	ldrh	r3, [fp, #-44]
	ldr	r0, .L346+108
	mov	r1, r3
	bl	prints
	ldr	r3, .L346+88
	mov	r2, #4
	strh	r2, [r3]	@ movhi
	b	.L317
.L325:
	mov	r0, #16
	mov	r1, #10
	bl	locate
	ldrh	r3, [fp, #-44]
	ldr	r0, .L346+112
	mov	r1, r3
	bl	prints
	ldr	r3, .L346+88
	mov	r2, #3
	strh	r2, [r3]	@ movhi
	b	.L317
.L326:
	mov	r0, #16
	mov	r1, #10
	bl	locate
	ldrh	r3, [fp, #-44]
	ldr	r0, .L346+116
	mov	r1, r3
	bl	prints
	ldr	r3, .L346+88
	mov	r2, #2
	strh	r2, [r3]	@ movhi
	b	.L317
.L327:
	mov	r0, #16
	mov	r1, #10
	bl	locate
	ldrh	r3, [fp, #-44]
	ldr	r0, .L346+120
	mov	r1, r3
	bl	prints
	ldr	r3, .L346+88
	mov	r2, #1
	strh	r2, [r3]	@ movhi
	mov	r0, r0	@ nop
.L317:
	mov	r0, #4
	mov	r1, #12
	bl	locate
	ldrh	r3, [fp, #-42]
	ldr	r0, .L346+124
	mov	r1, r3
	bl	prints
	mov	r0, #15
	mov	r1, #12
	bl	locate
	ldrh	r3, [fp, #-54]
	ldr	r0, .L346+16
	mov	r1, r3
	bl	prints
	mov	r0, #23
	mov	r1, #12
	bl	locate
	ldrh	r3, [fp, #-66]
	ldr	r0, .L346+20
	mov	r1, r3
	bl	prints
	ldrh	r3, [fp, #-30]
	cmp	r3, #4
	ldrls	pc, [pc, r3, asl #2]
	b	.L328
.L330:
	.word	.L329
	.word	.L331
	.word	.L332
	.word	.L333
	.word	.L334
.L329:
	mov	r0, #16
	mov	r1, #12
	bl	locate
	ldrh	r3, [fp, #-42]
	ldr	r0, .L346+128
	mov	r1, r3
	bl	prints
	ldr	r3, .L346+132
	ldr	r2, .L346+136
	strh	r2, [r3]	@ movhi
	b	.L328
.L331:
	mov	r0, #16
	mov	r1, #12
	bl	locate
	ldrh	r3, [fp, #-42]
	ldr	r0, .L346+140
	mov	r1, r3
	bl	prints
	ldr	r3, .L346+132
	ldr	r2, .L346+144
	strh	r2, [r3]	@ movhi
	b	.L328
.L332:
	mov	r0, #16
	mov	r1, #12
	bl	locate
	ldrh	r3, [fp, #-42]
	ldr	r0, .L346+148
	mov	r1, r3
	bl	prints
	ldr	r3, .L346+132
	ldr	r2, .L346+152
	strh	r2, [r3]	@ movhi
	b	.L328
.L333:
	mov	r0, #16
	mov	r1, #12
	bl	locate
	ldrh	r3, [fp, #-42]
	ldr	r0, .L346+156
	mov	r1, r3
	bl	prints
	ldr	r3, .L346+132
	ldr	r2, .L346+160
	strh	r2, [r3]	@ movhi
	b	.L328
.L334:
	mov	r0, #16
	mov	r1, #12
	bl	locate
	ldrh	r3, [fp, #-42]
	ldr	r0, .L346+164
	mov	r1, r3
	bl	prints
	ldr	r3, .L346+132
	mov	r2, #0
	strh	r2, [r3]	@ movhi
	mov	r0, r0	@ nop
.L328:
	mov	r0, #21
	mov	r1, #16
	bl	locate
	ldrh	r3, [fp, #-40]
	ldr	r0, .L346+168
	mov	r1, r3
	bl	prints
	ldrh	r3, [fp, #-12]
	and	r3, r3, #1
	cmp	r3, #0
	bne	.L335
	ldrh	r3, [fp, #-12]
	and	r3, r3, #2
	cmp	r3, #0
	beq	.L336
.L335:
	bl	display_help
.L336:
	ldrh	r3, [fp, #-14]
	cmp	r3, #4
	bne	.L337
	ldrh	r3, [fp, #-12]
	and	r3, r3, #8
	cmp	r3, #0
	beq	.L337
	ldr	r3, .L346+28
	ldrh	r3, [r3]
	cmp	r3, #1
	bne	.L338
	mov	r0, #3
	mov	r1, #14
	bl	locate
	ldr	r0, .L346+172
	mov	r1, #31
	bl	prints
	mov	r0, #3
	mov	r1, #15
	bl	locate
	ldr	r0, .L346+176
	ldr	r1, .L346+180
	bl	prints
	mov	r0, #4
	mov	r1, #16
	bl	locate
	ldr	r0, .L346+184
	ldr	r1, .L346+180
	bl	prints
	b	.L337
.L338:
	ldr	r3, .L346+28
	ldrh	r3, [r3]
	cmp	r3, #2
	bne	.L339
	mov	r0, #3
	mov	r1, #14
	bl	locate
	ldr	r0, .L346+172
	mov	r1, #31
	bl	prints
	mov	r0, #3
	mov	r1, #15
	bl	locate
	ldr	r0, .L346+188
	ldr	r1, .L346+180
	bl	prints
	mov	r0, #4
	mov	r1, #16
	bl	locate
	ldr	r0, .L346+184
	ldr	r1, .L346+180
	bl	prints
	b	.L337
.L339:
	ldr	r3, .L346+28
	ldrh	r3, [r3]
	cmp	r3, #3
	bne	.L340
	mov	r0, #3
	mov	r1, #14
	bl	locate
	ldr	r0, .L346+172
	mov	r1, #31
	bl	prints
	mov	r0, #3
	mov	r1, #15
	bl	locate
	ldr	r0, .L346+192
	ldr	r1, .L346+180
	bl	prints
	mov	r0, #4
	mov	r1, #16
	bl	locate
	ldr	r0, .L346+184
	ldr	r1, .L346+180
	bl	prints
	b	.L337
.L340:
	b	.L343
.L337:
	b	.L342
.L343:
	sub	sp, fp, #4
	@ sp needed
	ldmfd	sp!, {fp, lr}
	bx	lr
.L347:
	.align	2
.L346:
	.word	32767
	.word	.LC96
	.word	.LC97
	.word	.LC98
	.word	.LC99
	.word	.LC100
	.word	.LC101
	.word	pattern_note
	.word	.LC102
	.word	.LC103
	.word	.LC104
	.word	.LC105
	.word	.LC106
	.word	speed
	.word	.LC107
	.word	.LC108
	.word	.LC109
	.word	.LC110
	.word	.LC111
	.word	.LC112
	.word	.LC113
	.word	.LC114
	.word	interval_note
	.word	.LC115
	.word	.LC116
	.word	.LC117
	.word	.LC118
	.word	.LC119
	.word	.LC120
	.word	.LC121
	.word	.LC122
	.word	.LC123
	.word	.LC124
	.word	limit_time
	.word	3000
	.word	.LC125
	.word	6000
	.word	.LC126
	.word	9000
	.word	.LC127
	.word	12000
	.word	.LC128
	.word	.LC129
	.word	.LC130
	.word	.LC131
	.word	1023
	.word	.LC132
	.word	.LC133
	.word	.LC134
	.size	begin_op, .-begin_op
	.section	.rodata
	.align	2
.LC135:
	.ascii	"LIFE is gone.\000"
	.align	2
.LC136:
	.ascii	"GAME OVER\000"
	.align	2
.LC137:
	.ascii	"Survived in TIME.\000"
	.align	2
.LC138:
	.ascii	"GAME CLEAR\000"
	.text
	.align	2
	.global	begin_game
	.type	begin_game, %function
begin_game:
	@ Function supports interworking.
	@ args = 0, pretend = 0, frame = 680
	@ frame_needed = 1, uses_anonymous_args = 0
	stmfd	sp!, {r4, fp, lr}
	add	fp, sp, #8
	sub	sp, sp, #684
	mov	r3, #0
	strh	r3, [fp, #-14]	@ movhi
	b	.L349
.L352:
	mov	r3, #0
	strh	r3, [fp, #-16]	@ movhi
	b	.L350
.L351:
	ldrh	r2, [fp, #-14]
	ldrh	ip, [fp, #-16]
	ldrh	r3, [fp, #-14]	@ movhi
	mov	r1, r3	@ movhi
	mov	r1, r1, asl #2
	add	r1, r1, r3
	mov	r1, r1, asl #1
	add	r3, r1, r3
	mov	r3, r3, asl #2
	mov	r3, r3, asl #16
	mov	r3, r3, lsr #16
	add	r3, r3, #25
	mov	r3, r3, asl #16
	mov	r1, r3, lsr #16
	sub	r3, fp, #12
	sub	r0, r3, #344
	mov	r3, r2
	mov	r3, r3, asl #2
	add	r3, r3, r2
	mov	r3, r3, asl #2
	add	r3, r3, ip
	mov	r3, r3, asl #2
	add	r3, r0, r3
	strh	r1, [r3]	@ movhi
	ldrh	r2, [fp, #-14]
	ldrh	r0, [fp, #-16]
	sub	r3, fp, #12
	sub	r1, r3, #344
	mov	r3, r2
	mov	r3, r3, asl #2
	add	r3, r3, r2
	mov	r3, r3, asl #2
	add	r3, r3, r0
	mov	r3, r3, asl #2
	add	r3, r1, r3
	mov	r2, #0
	strh	r2, [r3, #2]	@ movhi
	ldrh	r2, [fp, #-14]
	ldrh	r0, [fp, #-16]
	sub	r3, fp, #12
	sub	r1, r3, #504
	mov	r3, r2
	mov	r3, r3, asl #2
	add	r3, r3, r2
	mov	r3, r3, asl #2
	add	r3, r3, r0
	mov	r3, r3, asl #1
	add	r3, r1, r3
	mov	r2, #0
	strh	r2, [r3]	@ movhi
	ldrh	r2, [fp, #-14]
	ldrh	r0, [fp, #-16]
	sub	r3, fp, #12
	sub	r1, r3, #664
	mov	r3, r2
	mov	r3, r3, asl #2
	add	r3, r3, r2
	mov	r3, r3, asl #2
	add	r3, r3, r0
	mov	r3, r3, asl #1
	add	r3, r1, r3
	mov	r2, #0
	strh	r2, [r3]	@ movhi
	ldrh	r3, [fp, #-16]
	add	r3, r3, #1
	strh	r3, [fp, #-16]	@ movhi
.L350:
	ldrh	r3, [fp, #-16]
	cmp	r3, #19
	bls	.L351
	ldrh	r3, [fp, #-14]
	add	r3, r3, #1
	strh	r3, [fp, #-14]	@ movhi
.L349:
	ldrh	r3, [fp, #-14]
	cmp	r3, #3
	bls	.L352
	mov	r3, #0
	strh	r3, [fp, #-18]	@ movhi
	mov	r3, #0
	strh	r3, [fp, #-32]	@ movhi
	sub	r3, fp, #12
	sub	r3, r3, #672
	mov	r2, #0
	strh	r2, [r3]	@ movhi
	sub	r3, fp, #12
	sub	r3, r3, #672
	mov	r2, #0
	strh	r2, [r3, #2]	@ movhi
	sub	r3, fp, #12
	sub	r3, r3, #672
	mov	r2, #0
	strh	r2, [r3, #4]	@ movhi
	sub	r3, fp, #12
	sub	r3, r3, #672
	mov	r2, #0
	strh	r2, [r3, #6]	@ movhi
	ldr	r3, .L402
	mov	r2, #0
	strh	r2, [r3]	@ movhi
	ldr	r3, .L402+4
	mov	r2, #0
	strh	r2, [r3]	@ movhi
	ldr	r3, .L402+8
	mov	r2, #0
	strh	r2, [r3]	@ movhi
	ldr	r3, .L402+12
	mov	r2, #0
	strh	r2, [r3]	@ movhi
	mov	r3, #0
	strh	r3, [fp, #-34]	@ movhi
	mov	r3, #0
	strh	r3, [fp, #-20]	@ movhi
	mov	r3, #0
	strh	r3, [fp, #-22]	@ movhi
	sub	r3, fp, #12
	sub	r3, r3, #680
	mov	r2, #0
	strh	r2, [r3]	@ movhi
	sub	r3, fp, #12
	sub	r3, r3, #680
	mov	r2, #0
	strh	r2, [r3, #2]	@ movhi
	sub	r3, fp, #12
	sub	r3, r3, #680
	mov	r2, #0
	strh	r2, [r3, #4]	@ movhi
	sub	r3, fp, #12
	sub	r3, r3, #680
	mov	r2, #0
	strh	r2, [r3, #6]	@ movhi
	mov	r3, #0
	strh	r3, [fp, #-24]	@ movhi
	mov	r3, #0
	strh	r3, [fp, #-26]	@ movhi
	mov	r3, #0
	strh	r3, [fp, #-36]	@ movhi
	mov	r3, #0
	strh	r3, [fp, #-28]	@ movhi
	mov	r3, #35
	strh	r3, [fp, #-30]	@ movhi
	mov	r0, #0
	bl	paint_all
	bl	draw_keylane
	bl	display_score_set
	ldr	r3, .L402+16
	ldrh	r3, [r3]
	cmp	r3, #0
	beq	.L353
	ldr	r3, .L402+16
	ldrh	r3, [r3]
	mov	r0, r3
	bl	display_time
	b	.L354
.L353:
	mov	r0, #0
	bl	display_time
.L354:
	ldrh	r3, [fp, #-30]
	mov	r0, r3
	bl	display_life
	ldr	r3, .L402
	ldrh	r0, [r3]
	ldr	r3, .L402+4
	ldrh	r1, [r3]
	ldr	r3, .L402+8
	ldrh	r2, [r3]
	ldr	r3, .L402+12
	ldrh	r3, [r3]
	bl	display_score
	sub	r3, fp, #684
	mov	r0, #25
	mov	r1, #18
	mov	r2, r3
	bl	display_button
	sub	r3, fp, #684
	mov	r0, r3
	bl	draw_judgeline
	bl	display_ready
	bl	draw_keylane
.L401:
	ldr	r3, .L402+20
	mov	r2, #132
	strh	r2, [r3]	@ movhi
	ldr	r3, .L402+24
	ldrh	r3, [r3]	@ movhi
	strh	r3, [fp, #-34]	@ movhi
	ldrh	r3, [fp, #-18]	@ movhi
	strh	r3, [fp, #-32]	@ movhi
	bl	judge_key
	mov	r3, r0
	strh	r3, [fp, #-18]	@ movhi
	ldrh	r2, [fp, #-18]
	ldrh	r3, [fp, #-32]
	cmp	r2, r3
	bne	.L355
	ldrh	r3, [fp, #-28]
	add	r3, r3, #1
	strh	r3, [fp, #-28]	@ movhi
.L355:
	ldrh	r2, [fp, #-32]
	ldrh	r3, [fp, #-18]
	mov	r0, r2
	mov	r1, r3
	bl	judge_finger0
	mov	r3, r0
	mov	r2, r3
	sub	r3, fp, #12
	sub	r3, r3, #672
	strh	r2, [r3]	@ movhi
	ldrh	r2, [fp, #-32]
	ldrh	r3, [fp, #-18]
	mov	r0, r2
	mov	r1, r3
	bl	judge_finger1
	mov	r3, r0
	mov	r2, r3
	sub	r3, fp, #12
	sub	r3, r3, #672
	strh	r2, [r3, #2]	@ movhi
	ldrh	r2, [fp, #-32]
	ldrh	r3, [fp, #-18]
	mov	r0, r2
	mov	r1, r3
	bl	judge_finger2
	mov	r3, r0
	mov	r2, r3
	sub	r3, fp, #12
	sub	r3, r3, #672
	strh	r2, [r3, #4]	@ movhi
	ldrh	r2, [fp, #-32]
	ldrh	r3, [fp, #-18]
	mov	r0, r2
	mov	r1, r3
	bl	judge_finger3
	mov	r3, r0
	mov	r2, r3
	sub	r3, fp, #12
	sub	r3, r3, #672
	strh	r2, [r3, #6]	@ movhi
	sub	r3, fp, #684
	mov	r0, r3
	bl	draw_judgeline
	mov	r3, #0
	strh	r3, [fp, #-14]	@ movhi
	b	.L356
.L363:
	mov	r3, #0
	strh	r3, [fp, #-16]	@ movhi
	b	.L357
.L362:
	ldrh	r2, [fp, #-14]
	ldrh	r0, [fp, #-16]
	sub	r3, fp, #12
	sub	r1, r3, #504
	mov	r3, r2
	mov	r3, r3, asl #2
	add	r3, r3, r2
	mov	r3, r3, asl #2
	add	r3, r3, r0
	mov	r3, r3, asl #1
	add	r3, r1, r3
	ldrh	r3, [r3]
	cmp	r3, #1
	bne	.L358
	ldrh	r2, [fp, #-14]
	ldrh	r1, [fp, #-16]
	mov	r3, r2
	mov	r3, r3, asl #2
	add	r3, r3, r2
	mov	r3, r3, asl #2
	add	r3, r3, r1
	mov	r3, r3, asl #2
	sub	r2, fp, #12
	add	r3, r2, r3
	ldrh	r2, [fp, #-14]
	ldr	r0, [r3, #-344]
	mov	r1, r2
	bl	delete_note
	ldrh	r2, [fp, #-14]
	ldrh	ip, [fp, #-16]
	ldrh	r1, [fp, #-14]
	ldrh	lr, [fp, #-16]
	sub	r3, fp, #12
	sub	r0, r3, #344
	mov	r3, r1
	mov	r3, r3, asl #2
	add	r3, r3, r1
	mov	r3, r3, asl #2
	add	r3, r3, lr
	mov	r3, r3, asl #2
	add	r3, r0, r3
	ldrh	r1, [r3, #2]
	ldr	r3, .L402+28
	ldrh	r3, [r3]
	add	r3, r1, r3
	mov	r3, r3, asl #16
	mov	r1, r3, lsr #16
	sub	r3, fp, #12
	sub	r0, r3, #344
	mov	r3, r2
	mov	r3, r3, asl #2
	add	r3, r3, r2
	mov	r3, r3, asl #2
	add	r3, r3, ip
	mov	r3, r3, asl #2
	add	r3, r0, r3
	strh	r1, [r3, #2]	@ movhi
	ldrh	r2, [fp, #-14]
	ldrh	r1, [fp, #-16]
	mov	r3, r2
	mov	r3, r3, asl #2
	add	r3, r3, r2
	mov	r3, r3, asl #2
	add	r3, r3, r1
	mov	r3, r3, asl #2
	sub	r2, fp, #12
	add	r3, r2, r3
	ldrh	r2, [fp, #-14]
	ldr	r0, [r3, #-344]
	mov	r1, r2
	bl	draw_note
	ldrh	r2, [fp, #-14]
	ldrh	r1, [fp, #-16]
	sub	r3, fp, #12
	sub	r0, r3, #664
	mov	r3, r2
	mov	r3, r3, asl #2
	add	r3, r3, r2
	mov	r3, r3, asl #2
	add	r3, r3, r1
	mov	r3, r3, asl #1
	add	r3, r0, r3
	ldrh	r3, [r3]
	add	r3, r3, #1
	mov	r3, r3, asl #16
	mov	r0, r3, lsr #16
	sub	r3, fp, #12
	sub	ip, r3, #664
	mov	r3, r2
	mov	r3, r3, asl #2
	add	r3, r3, r2
	mov	r3, r3, asl #2
	add	r3, r3, r1
	mov	r3, r3, asl #1
	add	r3, ip, r3
	strh	r0, [r3]	@ movhi
.L358:
	ldrh	r2, [fp, #-14]
	ldrh	r0, [fp, #-16]
	sub	r3, fp, #12
	sub	r1, r3, #344
	mov	r3, r2
	mov	r3, r3, asl #2
	add	r3, r3, r2
	mov	r3, r3, asl #2
	add	r3, r3, r0
	mov	r3, r3, asl #2
	add	r3, r1, r3
	ldrh	r3, [r3, #2]
	cmp	r3, #197
	bls	.L359
	ldrh	r2, [fp, #-14]
	ldrh	r0, [fp, #-16]
	sub	r3, fp, #12
	sub	r1, r3, #344
	mov	r3, r2
	mov	r3, r3, asl #2
	add	r3, r3, r2
	mov	r3, r3, asl #2
	add	r3, r3, r0
	mov	r3, r3, asl #2
	add	r3, r1, r3
	mov	r2, #0
	strh	r2, [r3, #2]	@ movhi
	ldrh	r2, [fp, #-14]
	ldrh	r0, [fp, #-16]
	sub	r3, fp, #12
	sub	r1, r3, #504
	mov	r3, r2
	mov	r3, r3, asl #2
	add	r3, r3, r2
	mov	r3, r3, asl #2
	add	r3, r3, r0
	mov	r3, r3, asl #1
	add	r3, r1, r3
	mov	r2, #0
	strh	r2, [r3]	@ movhi
	ldrh	r2, [fp, #-14]
	ldrh	r0, [fp, #-16]
	sub	r3, fp, #12
	sub	r1, r3, #664
	mov	r3, r2
	mov	r3, r3, asl #2
	add	r3, r3, r2
	mov	r3, r3, asl #2
	add	r3, r3, r0
	mov	r3, r3, asl #1
	add	r3, r1, r3
	mov	r2, #0
	strh	r2, [r3]	@ movhi
	ldr	r3, .L402+12
	ldrh	r3, [r3]
	add	r3, r3, #1
	mov	r3, r3, asl #16
	mov	r3, r3, lsr #16
	ldr	r2, .L402+12
	strh	r3, [r2]	@ movhi
	mov	r3, #0
	strh	r3, [fp, #-24]	@ movhi
	ldrh	r3, [fp, #-30]
	cmp	r3, #1
	bne	.L360
	ldrh	r3, [fp, #-30]	@ movhi
	sub	r3, r3, #1
	strh	r3, [fp, #-30]	@ movhi
	b	.L361
.L360:
	ldrh	r3, [fp, #-30]	@ movhi
	sub	r3, r3, #2
	strh	r3, [fp, #-30]	@ movhi
.L361:
	bl	display_miss
.L359:
	ldrh	r3, [fp, #-16]
	add	r3, r3, #1
	strh	r3, [fp, #-16]	@ movhi
.L357:
	ldrh	r3, [fp, #-16]
	cmp	r3, #19
	bls	.L362
	ldrh	r3, [fp, #-14]
	add	r3, r3, #1
	strh	r3, [fp, #-14]	@ movhi
.L356:
	ldrh	r3, [fp, #-14]
	cmp	r3, #3
	bls	.L363
	mov	r3, #0
	strh	r3, [fp, #-14]	@ movhi
	b	.L364
.L374:
	mov	r3, #0
	strh	r3, [fp, #-16]	@ movhi
	b	.L365
.L373:
	ldrh	r3, [fp, #-14]
	sub	r2, fp, #12
	sub	r2, r2, #672
	mov	r3, r3, asl #1
	add	r3, r2, r3
	ldrh	r3, [r3]
	cmp	r3, #1
	bne	.L366
	ldr	r3, .L402+28
	ldrh	r3, [r3]
	mov	r0, #144
	mov	r1, r3
	bl	div
	mov	r3, r0
	mov	ip, r3
	ldrh	r2, [fp, #-14]
	ldrh	r0, [fp, #-16]
	sub	r3, fp, #12
	sub	r1, r3, #664
	mov	r3, r2
	mov	r3, r3, asl #2
	add	r3, r3, r2
	mov	r3, r3, asl #2
	add	r3, r3, r0
	mov	r3, r3, asl #1
	add	r3, r1, r3
	ldrh	r3, [r3]
	cmp	ip, r3
	bgt	.L367
	ldrh	r2, [fp, #-14]
	ldrh	r0, [fp, #-16]
	sub	r3, fp, #12
	sub	r1, r3, #664
	mov	r3, r2
	mov	r3, r3, asl #2
	add	r3, r3, r2
	mov	r3, r3, asl #2
	add	r3, r3, r0
	mov	r3, r3, asl #1
	add	r3, r1, r3
	ldrh	r3, [r3]
	mov	r4, r3
	ldr	r3, .L402+28
	ldrh	r3, [r3]
	mov	r0, #144
	mov	r1, r3
	bl	div
	mov	r3, r0
	cmp	r4, r3
	bgt	.L367
	ldr	r3, .L402
	ldrh	r3, [r3]
	add	r3, r3, #1
	mov	r3, r3, asl #16
	mov	r3, r3, lsr #16
	ldr	r2, .L402
	strh	r3, [r2]	@ movhi
	ldrh	r2, [fp, #-14]
	ldrh	r1, [fp, #-16]
	mov	r3, r2
	mov	r3, r3, asl #2
	add	r3, r3, r2
	mov	r3, r3, asl #2
	add	r3, r3, r1
	mov	r3, r3, asl #2
	sub	r2, fp, #12
	add	r3, r2, r3
	ldrh	r2, [fp, #-14]
	ldr	r0, [r3, #-344]
	mov	r1, r2
	bl	delete_note
	ldrh	r2, [fp, #-14]
	ldrh	r0, [fp, #-16]
	sub	r3, fp, #12
	sub	r1, r3, #344
	mov	r3, r2
	mov	r3, r3, asl #2
	add	r3, r3, r2
	mov	r3, r3, asl #2
	add	r3, r3, r0
	mov	r3, r3, asl #2
	add	r3, r1, r3
	mov	r2, #0
	strh	r2, [r3, #2]	@ movhi
	ldrh	r2, [fp, #-14]
	ldrh	r0, [fp, #-16]
	sub	r3, fp, #12
	sub	r1, r3, #504
	mov	r3, r2
	mov	r3, r3, asl #2
	add	r3, r3, r2
	mov	r3, r3, asl #2
	add	r3, r3, r0
	mov	r3, r3, asl #1
	add	r3, r1, r3
	mov	r2, #0
	strh	r2, [r3]	@ movhi
	ldrh	r2, [fp, #-14]
	ldrh	r0, [fp, #-16]
	sub	r3, fp, #12
	sub	r1, r3, #664
	mov	r3, r2
	mov	r3, r3, asl #2
	add	r3, r3, r2
	mov	r3, r3, asl #2
	add	r3, r3, r0
	mov	r3, r3, asl #1
	add	r3, r1, r3
	mov	r2, #0
	strh	r2, [r3]	@ movhi
	ldrh	r3, [fp, #-24]
	add	r3, r3, #1
	strh	r3, [fp, #-24]	@ movhi
	ldrh	r3, [fp, #-30]
	cmp	r3, #35
	beq	.L369
	ldrh	r3, [fp, #-30]
	cmp	r3, #34
	bne	.L370
	ldrh	r3, [fp, #-30]	@ movhi
	add	r3, r3, #1
	strh	r3, [fp, #-30]	@ movhi
	b	.L369
.L370:
	ldrh	r3, [fp, #-30]	@ movhi
	add	r3, r3, #2
	strh	r3, [fp, #-30]	@ movhi
.L369:
	bl	display_best
	b	.L371
.L367:
	ldr	r3, .L402+28
	ldrh	r3, [r3]
	mov	r0, #144
	mov	r1, r3
	bl	div
	mov	r3, r0
	sub	r1, r3, #2
	ldrh	r2, [fp, #-14]
	ldrh	ip, [fp, #-16]
	sub	r3, fp, #12
	sub	r0, r3, #664
	mov	r3, r2
	mov	r3, r3, asl #2
	add	r3, r3, r2
	mov	r3, r3, asl #2
	add	r3, r3, ip
	mov	r3, r3, asl #1
	add	r3, r0, r3
	ldrh	r3, [r3]
	cmp	r1, r3
	bgt	.L372
	ldrh	r2, [fp, #-14]
	ldrh	r0, [fp, #-16]
	sub	r3, fp, #12
	sub	r1, r3, #664
	mov	r3, r2
	mov	r3, r3, asl #2
	add	r3, r3, r2
	mov	r3, r3, asl #2
	add	r3, r3, r0
	mov	r3, r3, asl #1
	add	r3, r1, r3
	ldrh	r3, [r3]
	mov	r4, r3
	ldr	r3, .L402+28
	ldrh	r3, [r3]
	mov	r0, #144
	mov	r1, r3
	bl	div
	mov	r3, r0
	add	r3, r3, #2
	cmp	r4, r3
	bgt	.L372
	ldr	r3, .L402+4
	ldrh	r3, [r3]
	add	r3, r3, #1
	mov	r3, r3, asl #16
	mov	r3, r3, lsr #16
	ldr	r2, .L402+4
	strh	r3, [r2]	@ movhi
	ldrh	r2, [fp, #-14]
	ldrh	r1, [fp, #-16]
	mov	r3, r2
	mov	r3, r3, asl #2
	add	r3, r3, r2
	mov	r3, r3, asl #2
	add	r3, r3, r1
	mov	r3, r3, asl #2
	sub	r2, fp, #12
	add	r3, r2, r3
	ldrh	r2, [fp, #-14]
	ldr	r0, [r3, #-344]
	mov	r1, r2
	bl	delete_note
	ldrh	r2, [fp, #-14]
	ldrh	r0, [fp, #-16]
	sub	r3, fp, #12
	sub	r1, r3, #344
	mov	r3, r2
	mov	r3, r3, asl #2
	add	r3, r3, r2
	mov	r3, r3, asl #2
	add	r3, r3, r0
	mov	r3, r3, asl #2
	add	r3, r1, r3
	mov	r2, #0
	strh	r2, [r3, #2]	@ movhi
	ldrh	r2, [fp, #-14]
	ldrh	r0, [fp, #-16]
	sub	r3, fp, #12
	sub	r1, r3, #504
	mov	r3, r2
	mov	r3, r3, asl #2
	add	r3, r3, r2
	mov	r3, r3, asl #2
	add	r3, r3, r0
	mov	r3, r3, asl #1
	add	r3, r1, r3
	mov	r2, #0
	strh	r2, [r3]	@ movhi
	ldrh	r2, [fp, #-14]
	ldrh	r0, [fp, #-16]
	sub	r3, fp, #12
	sub	r1, r3, #664
	mov	r3, r2
	mov	r3, r3, asl #2
	add	r3, r3, r2
	mov	r3, r3, asl #2
	add	r3, r3, r0
	mov	r3, r3, asl #1
	add	r3, r1, r3
	mov	r2, #0
	strh	r2, [r3]	@ movhi
	ldrh	r3, [fp, #-24]
	add	r3, r3, #1
	strh	r3, [fp, #-24]	@ movhi
	bl	display_cool
	b	.L371
.L372:
	ldr	r3, .L402+28
	ldrh	r3, [r3]
	mov	r0, #144
	mov	r1, r3
	bl	div
	mov	r3, r0
	sub	r1, r3, #4
	ldrh	r2, [fp, #-14]
	ldrh	ip, [fp, #-16]
	sub	r3, fp, #12
	sub	r0, r3, #664
	mov	r3, r2
	mov	r3, r3, asl #2
	add	r3, r3, r2
	mov	r3, r3, asl #2
	add	r3, r3, ip
	mov	r3, r3, asl #1
	add	r3, r0, r3
	ldrh	r3, [r3]
	cmp	r1, r3
	bgt	.L366
	ldrh	r2, [fp, #-14]
	ldrh	r0, [fp, #-16]
	sub	r3, fp, #12
	sub	r1, r3, #664
	mov	r3, r2
	mov	r3, r3, asl #2
	add	r3, r3, r2
	mov	r3, r3, asl #2
	add	r3, r3, r0
	mov	r3, r3, asl #1
	add	r3, r1, r3
	ldrh	r3, [r3]
	mov	r4, r3
	ldr	r3, .L402+28
	ldrh	r3, [r3]
	mov	r0, #144
	mov	r1, r3
	bl	div
	mov	r3, r0
	add	r3, r3, #4
	cmp	r4, r3
	bgt	.L366
	ldr	r3, .L402+8
	ldrh	r3, [r3]
	add	r3, r3, #1
	mov	r3, r3, asl #16
	mov	r3, r3, lsr #16
	ldr	r2, .L402+8
	strh	r3, [r2]	@ movhi
	ldrh	r2, [fp, #-14]
	ldrh	r1, [fp, #-16]
	mov	r3, r2
	mov	r3, r3, asl #2
	add	r3, r3, r2
	mov	r3, r3, asl #2
	add	r3, r3, r1
	mov	r3, r3, asl #2
	sub	r2, fp, #12
	add	r3, r2, r3
	ldrh	r2, [fp, #-14]
	ldr	r0, [r3, #-344]
	mov	r1, r2
	bl	delete_note
	ldrh	r2, [fp, #-14]
	ldrh	r0, [fp, #-16]
	sub	r3, fp, #12
	sub	r1, r3, #344
	mov	r3, r2
	mov	r3, r3, asl #2
	add	r3, r3, r2
	mov	r3, r3, asl #2
	add	r3, r3, r0
	mov	r3, r3, asl #2
	add	r3, r1, r3
	mov	r2, #0
	strh	r2, [r3, #2]	@ movhi
	ldrh	r2, [fp, #-14]
	ldrh	r0, [fp, #-16]
	sub	r3, fp, #12
	sub	r1, r3, #504
	mov	r3, r2
	mov	r3, r3, asl #2
	add	r3, r3, r2
	mov	r3, r3, asl #2
	add	r3, r3, r0
	mov	r3, r3, asl #1
	add	r3, r1, r3
	mov	r2, #0
	strh	r2, [r3]	@ movhi
	ldrh	r2, [fp, #-14]
	ldrh	r0, [fp, #-16]
	sub	r3, fp, #12
	sub	r1, r3, #664
	mov	r3, r2
	mov	r3, r3, asl #2
	add	r3, r3, r2
	mov	r3, r3, asl #2
	add	r3, r3, r0
	mov	r3, r3, asl #1
	add	r3, r1, r3
	mov	r2, #0
	strh	r2, [r3]	@ movhi
	bl	display_good
	b	.L371
.L366:
	ldrh	r3, [fp, #-16]
	add	r3, r3, #1
	strh	r3, [fp, #-16]	@ movhi
.L365:
	ldrh	r3, [fp, #-16]
	cmp	r3, #19
	bls	.L373
.L371:
	ldrh	r3, [fp, #-14]
	add	r3, r3, #1
	strh	r3, [fp, #-14]	@ movhi
.L364:
	ldrh	r3, [fp, #-14]
	cmp	r3, #3
	bls	.L374
	ldr	r3, .L402+32
	ldrh	r3, [r3]
	ldrh	r2, [fp, #-26]
	mov	r0, r2
	mov	r1, r3
	bl	mod
	mov	r3, r0
	cmp	r3, #0
	bne	.L375
	ldr	r3, .L402+36
	ldrh	r3, [r3]
	cmp	r3, #0
	bne	.L375
	ldrh	r3, [fp, #-22]
	cmp	r3, #0
	bne	.L377
	ldrh	r3, [fp, #-28]
	mov	r0, r3
	mov	r1, #3
	bl	mod
	mov	r3, r0
	cmp	r3, #0
	bne	.L378
	mov	r3, #3
	strh	r3, [fp, #-22]	@ movhi
	b	.L380
.L378:
	mov	r3, #1
	strh	r3, [fp, #-22]	@ movhi
	b	.L380
.L377:
	ldrh	r3, [fp, #-22]
	cmp	r3, #3
	bne	.L381
	ldrh	r3, [fp, #-28]
	mov	r0, r3
	mov	r1, #3
	bl	mod
	mov	r3, r0
	cmp	r3, #0
	bne	.L382
	mov	r3, #0
	strh	r3, [fp, #-22]	@ movhi
	b	.L380
.L382:
	mov	r3, #2
	strh	r3, [fp, #-22]	@ movhi
	b	.L380
.L381:
	ldrh	r3, [fp, #-28]
	mov	r0, r3
	mov	r1, #2
	bl	mod
	mov	r3, r0
	cmp	r3, #0
	bne	.L384
	ldrh	r3, [fp, #-22]
	add	r3, r3, #1
	strh	r3, [fp, #-22]	@ movhi
	b	.L380
.L384:
	ldrh	r3, [fp, #-28]
	mov	r0, r3
	mov	r1, #2
	bl	mod
	mov	r3, r0
	cmp	r3, #1
	bne	.L380
	ldrh	r3, [fp, #-22]
	sub	r3, r3, #1
	strh	r3, [fp, #-22]	@ movhi
.L380:
	ldrh	r2, [fp, #-22]
	ldrh	r3, [fp, #-22]
	sub	r1, fp, #12
	sub	r1, r1, #680
	mov	r3, r3, asl #1
	add	r3, r1, r3
	ldrh	r3, [r3]
	mov	r0, r3
	sub	r3, fp, #12
	sub	r1, r3, #504
	mov	r3, r2
	mov	r3, r3, asl #2
	add	r3, r3, r2
	mov	r3, r3, asl #2
	add	r3, r3, r0
	mov	r3, r3, asl #1
	add	r3, r1, r3
	mov	r2, #1
	strh	r2, [r3]	@ movhi
	ldrh	r3, [fp, #-22]
	sub	r2, fp, #12
	sub	r1, r2, #680
	mov	r2, r3, asl #1
	add	r2, r1, r2
	ldrh	r2, [r2]
	add	r2, r2, #1
	mov	r2, r2, asl #16
	mov	r2, r2, lsr #16
	sub	r1, fp, #12
	sub	r1, r1, #680
	mov	r3, r3, asl #1
	add	r3, r1, r3
	strh	r2, [r3]	@ movhi
.L375:
	mov	r3, #0
	strh	r3, [fp, #-14]	@ movhi
	b	.L385
.L387:
	ldrh	r3, [fp, #-14]
	sub	r2, fp, #12
	sub	r2, r2, #680
	mov	r3, r3, asl #1
	add	r3, r2, r3
	ldrh	r3, [r3]
	cmp	r3, #20
	bne	.L386
	ldrh	r3, [fp, #-14]
	sub	r2, fp, #12
	sub	r2, r2, #680
	mov	r3, r3, asl #1
	add	r3, r2, r3
	mov	r2, #0
	strh	r2, [r3]	@ movhi
.L386:
	ldrh	r3, [fp, #-14]
	add	r3, r3, #1
	strh	r3, [fp, #-14]	@ movhi
.L385:
	ldrh	r3, [fp, #-14]
	cmp	r3, #3
	bls	.L387
	ldr	r3, .L402+16
	ldrh	r3, [r3]
	cmp	r3, #0
	beq	.L388
	ldr	r3, .L402+16
	ldrh	r2, [r3]
	ldrh	r3, [fp, #-34]	@ movhi
	rsb	r3, r3, r2
	strh	r3, [fp, #-20]	@ movhi
	ldrh	r3, [fp, #-20]
	mov	r0, r3
	bl	display_time
	b	.L389
.L388:
	ldrh	r3, [fp, #-34]
	mov	r0, r3
	bl	display_time
.L389:
	ldr	r3, .L402
	ldrh	r0, [r3]
	ldr	r3, .L402+4
	ldrh	r1, [r3]
	ldr	r3, .L402+8
	ldrh	r2, [r3]
	ldr	r3, .L402+12
	ldrh	r3, [r3]
	bl	display_score
	sub	r3, fp, #684
	mov	r0, #25
	mov	r1, #18
	mov	r2, r3
	bl	display_button
	ldrh	r3, [fp, #-30]
	mov	r0, r3
	bl	display_life
	ldrh	r3, [fp, #-24]
	mov	r0, r3
	bl	display_combo
	sub	r3, fp, #684
	mov	r0, r3
	bl	draw_judgeline
	ldrh	r3, [fp, #-26]
	add	r3, r3, #1
	strh	r3, [fp, #-26]	@ movhi
	ldrh	r3, [fp, #-30]
	cmp	r3, #0
	bne	.L390
	mov	r0, #0
	bl	paint_all
	ldr	r3, .L402+16
	ldrh	r3, [r3]
	cmp	r3, #0
	beq	.L391
	ldr	r3, .L402+16
	ldrh	r2, [r3]
	ldrh	r3, [fp, #-34]	@ movhi
	rsb	r3, r3, r2
	strh	r3, [fp, #-20]	@ movhi
	ldrh	r3, [fp, #-20]
	mov	r0, r3
	bl	display_time
	b	.L392
.L391:
	ldrh	r3, [fp, #-34]
	mov	r0, r3
	bl	display_time
.L392:
	ldr	r3, .L402
	ldrh	r0, [r3]
	ldr	r3, .L402+4
	ldrh	r1, [r3]
	ldr	r3, .L402+8
	ldrh	r2, [r3]
	ldr	r3, .L402+12
	ldrh	r3, [r3]
	bl	display_score
	sub	r3, fp, #684
	mov	r0, #25
	mov	r1, #18
	mov	r2, r3
	bl	display_button
	ldrh	r3, [fp, #-30]
	mov	r0, r3
	bl	display_life
	sub	r3, fp, #684
	mov	r0, r3
	bl	draw_judgeline
	mov	r0, #5
	mov	r1, #6
	bl	locate
	ldr	r0, .L402+40
	mov	r1, #31
	bl	prints
	mov	r0, #7
	mov	r1, #8
	bl	locate
	ldr	r0, .L402+44
	mov	r1, #31
	bl	prints
	ldr	r3, .L402+48
	mov	r2, #0
	strh	r2, [r3]	@ movhi
	ldr	r0, .L402+52
	bl	delay
.L395:
	mov	r3, #0
	strh	r3, [fp, #-32]	@ movhi
	mov	r3, #0
	strh	r3, [fp, #-18]	@ movhi
	ldrh	r3, [fp, #-18]	@ movhi
	strh	r3, [fp, #-32]	@ movhi
	bl	judge_key
	mov	r3, r0
	strh	r3, [fp, #-18]	@ movhi
	mov	r0, #15
	mov	r1, #10
	bl	locate
	ldr	r0, .L402+56
	ldr	r1, .L402+60
	bl	prints
	ldrh	r2, [fp, #-32]
	ldrh	r3, [fp, #-18]
	cmp	r2, r3
	beq	.L393
	mov	r0, r0	@ nop
	b	.L348
.L393:
	b	.L395
.L390:
	ldr	r3, .L402+16
	ldrh	r3, [r3]
	cmp	r3, #0
	beq	.L397
	ldrh	r3, [fp, #-20]
	cmp	r3, #10
	bhi	.L397
	mov	r0, #0
	bl	paint_all
	mov	r0, #0
	bl	display_time
	ldr	r3, .L402
	ldrh	r0, [r3]
	ldr	r3, .L402+4
	ldrh	r1, [r3]
	ldr	r3, .L402+8
	ldrh	r2, [r3]
	ldr	r3, .L402+12
	ldrh	r3, [r3]
	bl	display_score
	sub	r3, fp, #684
	mov	r0, #25
	mov	r1, #18
	mov	r2, r3
	bl	display_button
	ldrh	r3, [fp, #-30]
	mov	r0, r3
	bl	display_life
	sub	r3, fp, #684
	mov	r0, r3
	bl	draw_judgeline
	mov	r0, #3
	mov	r1, #6
	bl	locate
	ldr	r0, .L402+64
	ldr	r1, .L402+68
	bl	prints
	mov	r0, #7
	mov	r1, #8
	bl	locate
	ldr	r0, .L402+72
	ldr	r1, .L402+68
	bl	prints
	ldr	r3, .L402+48
	mov	r2, #1
	strh	r2, [r3]	@ movhi
	ldr	r0, .L402+52
	bl	delay
.L400:
	mov	r3, #0
	strh	r3, [fp, #-32]	@ movhi
	mov	r3, #0
	strh	r3, [fp, #-18]	@ movhi
	ldrh	r3, [fp, #-18]	@ movhi
	strh	r3, [fp, #-32]	@ movhi
	bl	judge_key
	mov	r3, r0
	strh	r3, [fp, #-18]	@ movhi
	mov	r0, #15
	mov	r1, #10
	bl	locate
	ldr	r0, .L402+56
	ldr	r1, .L402+60
	bl	prints
	ldrh	r2, [fp, #-32]
	ldrh	r3, [fp, #-18]
	cmp	r2, r3
	beq	.L398
	mov	r0, r0	@ nop
	b	.L348
.L398:
	b	.L400
.L397:
	b	.L401
.L348:
	sub	sp, fp, #8
	@ sp needed
	ldmfd	sp!, {r4, fp, lr}
	bx	lr
.L403:
	.align	2
.L402:
	.word	best
	.word	cool
	.word	good
	.word	miss
	.word	limit_time
	.word	67109134
	.word	67109132
	.word	speed
	.word	interval_note
	.word	pattern_note
	.word	.LC135
	.word	.LC136
	.word	is_clear
	.word	1500
	.word	.LC68
	.word	32767
	.word	.LC137
	.word	1023
	.word	.LC138
	.size	begin_game, .-begin_game
	.align	2
	.global	paint_colorful
	.type	paint_colorful, %function
paint_colorful:
	@ Function supports interworking.
	@ args = 0, pretend = 0, frame = 8
	@ frame_needed = 1, uses_anonymous_args = 0
	stmfd	sp!, {fp, lr}
	add	fp, sp, #4
	sub	sp, sp, #8
	mov	r3, #0
	strh	r3, [fp, #-8]	@ movhi
	b	.L405
.L412:
	mov	r3, #0
	strh	r3, [fp, #-6]	@ movhi
	b	.L406
.L411:
	ldrh	r3, [fp, #-8]
	cmp	r3, #39
	bhi	.L407
	ldrh	r2, [fp, #-6]
	ldrh	r3, [fp, #-8]
	mov	r0, r2
	mov	r1, r3
	mov	r2, #31
	bl	draw_point
	b	.L408
.L407:
	ldrh	r3, [fp, #-8]
	cmp	r3, #79
	bhi	.L409
	ldrh	r2, [fp, #-6]
	ldrh	r3, [fp, #-8]
	mov	r0, r2
	mov	r1, r3
	ldr	r2, .L413
	bl	draw_point
	b	.L408
.L409:
	ldrh	r3, [fp, #-8]
	cmp	r3, #119
	bhi	.L410
	ldrh	r2, [fp, #-6]
	ldrh	r3, [fp, #-8]
	mov	r0, r2
	mov	r1, r3
	mov	r2, #992
	bl	draw_point
	b	.L408
.L410:
	ldrh	r3, [fp, #-8]
	cmp	r3, #159
	bhi	.L408
	ldrh	r2, [fp, #-6]
	ldrh	r3, [fp, #-8]
	mov	r0, r2
	mov	r1, r3
	mov	r2, #31744
	bl	draw_point
.L408:
	ldrh	r3, [fp, #-6]
	add	r3, r3, #1
	strh	r3, [fp, #-6]	@ movhi
.L406:
	ldrh	r3, [fp, #-6]
	cmp	r3, #239
	bls	.L411
	ldrh	r3, [fp, #-8]
	add	r3, r3, #1
	strh	r3, [fp, #-8]	@ movhi
.L405:
	ldrh	r3, [fp, #-8]
	cmp	r3, #159
	bls	.L412
	sub	sp, fp, #4
	@ sp needed
	ldmfd	sp!, {fp, lr}
	bx	lr
.L414:
	.align	2
.L413:
	.word	1023
	.size	paint_colorful, .-paint_colorful
	.section	.rodata
	.align	2
.LC139:
	.ascii	"RESULT\000"
	.align	2
.LC140:
	.ascii	"PATTERN:\000"
	.align	2
.LC141:
	.ascii	"STAIRS\000"
	.align	2
.LC142:
	.ascii	"SPEED:\000"
	.align	2
.LC143:
	.ascii	"INTERVAL:\000"
	.align	2
.LC144:
	.ascii	"1/2\000"
	.align	2
.LC145:
	.ascii	"1/4\000"
	.align	2
.LC146:
	.ascii	"1/6\000"
	.align	2
.LC147:
	.ascii	"1/8\000"
	.align	2
.LC148:
	.ascii	"1/12\000"
	.align	2
.LC149:
	.ascii	"1/16\000"
	.align	2
.LC150:
	.ascii	"1/24\000"
	.align	2
.LC151:
	.ascii	"1/32\000"
	.align	2
.LC152:
	.ascii	"1/64\000"
	.align	2
.LC153:
	.ascii	"TIME:\000"
	.align	2
.LC154:
	.ascii	"30s\000"
	.align	2
.LC155:
	.ascii	"60s\000"
	.align	2
.LC156:
	.ascii	"90s\000"
	.align	2
.LC157:
	.ascii	"120s\000"
	.align	2
.LC158:
	.ascii	"FAILURE...\000"
	.align	2
.LC159:
	.ascii	"CLEAR!\000"
	.align	2
.LC160:
	.ascii	"TITLE\000"
	.align	2
.LC161:
	.ascii	"RETRY\000"
	.text
	.align	2
	.global	begin_end
	.type	begin_end, %function
begin_end:
	@ Function supports interworking.
	@ args = 0, pretend = 0, frame = 40
	@ frame_needed = 1, uses_anonymous_args = 0
	stmfd	sp!, {fp, lr}
	add	fp, sp, #4
	sub	sp, sp, #40
	mov	r3, #12
	strh	r3, [fp, #-16]	@ movhi
	mov	r3, #227
	strh	r3, [fp, #-18]	@ movhi
	mov	r3, #12
	strh	r3, [fp, #-20]	@ movhi
	mov	r3, #147
	strh	r3, [fp, #-22]	@ movhi
	ldr	r3, .L456
	ldrh	r2, [r3]
	ldr	r3, .L456+4
	ldrh	r3, [r3]
	add	r3, r2, r3
	mov	r3, r3, asl #16
	mov	r2, r3, lsr #16
	ldr	r3, .L456+8
	ldrh	r3, [r3]
	add	r3, r2, r3
	mov	r3, r3, asl #16
	mov	r2, r3, lsr #16
	ldr	r3, .L456+12
	ldrh	r3, [r3]
	add	r3, r2, r3
	strh	r3, [fp, #-24]	@ movhi
	ldr	r3, .L456
	ldrh	r3, [r3]
	mov	r2, r3	@ movhi
	mov	r2, r2, asl #2
	add	r3, r2, r3
	mov	r3, r3, asl #1
	mov	r3, r3, asl #16
	mov	r2, r3, lsr #16
	ldr	r3, .L456+4
	ldrh	r3, [r3]
	mov	r1, r3	@ movhi
	mov	r1, r1, asl #3
	rsb	r3, r3, r1
	mov	r3, r3, asl #16
	mov	r3, r3, lsr #16
	add	r3, r2, r3
	mov	r3, r3, asl #16
	mov	r2, r3, lsr #16
	ldr	r3, .L456+8
	ldrh	r3, [r3]
	mov	r1, r3	@ movhi
	mov	r1, r1, asl #1
	add	r3, r1, r3
	mov	r3, r3, asl #16
	mov	r3, r3, lsr #16
	add	r3, r2, r3
	strh	r3, [fp, #-26]	@ movhi
	mov	r3, #20
	strh	r3, [fp, #-28]	@ movhi
	mov	r3, #3
	strh	r3, [fp, #-30]	@ movhi
	mov	r3, #0
	strh	r3, [fp, #-14]	@ movhi
	mov	r3, #0
	strh	r3, [fp, #-40]	@ movhi
	mov	r3, #0
	strh	r3, [fp, #-38]	@ movhi
	mov	r3, #0
	strh	r3, [fp, #-36]	@ movhi
	bl	paint_colorful
	ldrh	r3, [fp, #-20]	@ movhi
	strh	r3, [fp, #-10]	@ movhi
	b	.L416
.L422:
	ldrh	r2, [fp, #-16]
	ldrh	r3, [fp, #-10]
	mov	r0, r2
	mov	r1, r3
	ldr	r2, .L456+16
	bl	draw_point
	ldrh	r3, [fp, #-16]	@ movhi
	add	r3, r3, #1
	strh	r3, [fp, #-8]	@ movhi
	b	.L417
.L421:
	ldrh	r2, [fp, #-10]
	ldrh	r3, [fp, #-20]
	cmp	r2, r3
	beq	.L418
	ldrh	r2, [fp, #-10]
	ldrh	r3, [fp, #-22]
	cmp	r2, r3
	bne	.L419
.L418:
	ldrh	r2, [fp, #-8]
	ldrh	r3, [fp, #-10]
	mov	r0, r2
	mov	r1, r3
	ldr	r2, .L456+16
	bl	draw_point
	b	.L420
.L419:
	ldrh	r2, [fp, #-8]
	ldrh	r3, [fp, #-10]
	mov	r0, r2
	mov	r1, r3
	mov	r2, #0
	bl	draw_point
.L420:
	ldrh	r3, [fp, #-8]
	add	r3, r3, #1
	strh	r3, [fp, #-8]	@ movhi
.L417:
	ldrh	r2, [fp, #-8]
	ldrh	r3, [fp, #-18]
	sub	r3, r3, #1
	cmp	r2, r3
	ble	.L421
	ldrh	r2, [fp, #-18]
	ldrh	r3, [fp, #-10]
	mov	r0, r2
	mov	r1, r3
	ldr	r2, .L456+16
	bl	draw_point
	ldrh	r3, [fp, #-10]
	add	r3, r3, #1
	strh	r3, [fp, #-10]	@ movhi
.L416:
	ldrh	r2, [fp, #-10]
	ldrh	r3, [fp, #-22]
	cmp	r2, r3
	bls	.L422
	mov	r0, #2
	mov	r1, #1
	bl	locate
	ldr	r0, .L456+20
	ldr	r1, .L456+16
	bl	prints
	mov	r0, #3
	mov	r1, #3
	bl	locate
	ldr	r0, .L456+24
	ldr	r1, .L456+16
	bl	prints
	mov	r0, #11
	mov	r1, #3
	bl	locate
	ldr	r0, .L456+28
	ldr	r1, .L456+32
	bl	prints
	mov	r0, #3
	mov	r1, #5
	bl	locate
	ldr	r0, .L456+36
	ldr	r1, .L456+16
	bl	prints
	mov	r0, #9
	mov	r1, #5
	bl	locate
	ldr	r3, .L456+40
	ldrh	r3, [r3]
	mov	r0, r3
	mov	r1, #1
	ldr	r2, .L456+32
	bl	num_to_string
	mov	r0, #3
	mov	r1, #7
	bl	locate
	ldr	r0, .L456+44
	ldr	r1, .L456+16
	bl	prints
	mov	r0, #12
	mov	r1, #7
	bl	locate
	ldr	r3, .L456+48
	ldrh	r3, [r3]
	sub	r3, r3, #1
	cmp	r3, #31
	ldrls	pc, [pc, r3, asl #2]
	b	.L423
.L425:
	.word	.L424
	.word	.L426
	.word	.L427
	.word	.L428
	.word	.L423
	.word	.L429
	.word	.L423
	.word	.L430
	.word	.L423
	.word	.L423
	.word	.L423
	.word	.L431
	.word	.L423
	.word	.L423
	.word	.L423
	.word	.L432
	.word	.L423
	.word	.L423
	.word	.L423
	.word	.L423
	.word	.L423
	.word	.L423
	.word	.L423
	.word	.L423
	.word	.L423
	.word	.L423
	.word	.L423
	.word	.L423
	.word	.L423
	.word	.L423
	.word	.L423
	.word	.L433
.L433:
	ldr	r0, .L456+52
	ldr	r1, .L456+32
	bl	prints
	b	.L423
.L432:
	ldr	r0, .L456+56
	ldr	r1, .L456+32
	bl	prints
	b	.L423
.L431:
	ldr	r0, .L456+60
	ldr	r1, .L456+32
	bl	prints
	b	.L423
.L430:
	ldr	r0, .L456+64
	ldr	r1, .L456+32
	bl	prints
	b	.L423
.L429:
	ldr	r0, .L456+68
	ldr	r1, .L456+32
	bl	prints
	b	.L423
.L428:
	ldr	r0, .L456+72
	ldr	r1, .L456+32
	bl	prints
	b	.L423
.L427:
	ldr	r0, .L456+76
	ldr	r1, .L456+32
	bl	prints
	b	.L423
.L426:
	ldr	r0, .L456+80
	ldr	r1, .L456+32
	bl	prints
	b	.L423
.L424:
	ldr	r0, .L456+84
	ldr	r1, .L456+32
	bl	prints
	mov	r0, r0	@ nop
.L423:
	mov	r0, #3
	mov	r1, #9
	bl	locate
	ldr	r0, .L456+88
	ldr	r1, .L456+16
	bl	prints
	mov	r0, #8
	mov	r1, #9
	bl	locate
	ldr	r3, .L456+92
	ldrh	r3, [r3]
	ldr	r2, .L456+96
	cmp	r3, r2
	beq	.L435
	ldr	r2, .L456+96
	cmp	r3, r2
	bgt	.L436
	cmp	r3, #0
	beq	.L437
	ldr	r2, .L456+100
	cmp	r3, r2
	beq	.L438
	b	.L434
.L436:
	ldr	r2, .L456+104
	cmp	r3, r2
	beq	.L439
	ldr	r2, .L456+108
	cmp	r3, r2
	beq	.L440
	b	.L434
.L438:
	ldr	r0, .L456+112
	ldr	r1, .L456+32
	bl	prints
	b	.L434
.L435:
	ldr	r0, .L456+116
	ldr	r1, .L456+32
	bl	prints
	b	.L434
.L439:
	ldr	r0, .L456+120
	ldr	r1, .L456+32
	bl	prints
	b	.L434
.L440:
	ldr	r0, .L456+124
	ldr	r1, .L456+32
	bl	prints
	b	.L434
.L437:
	ldr	r0, .L456+128
	ldr	r1, .L456+32
	bl	prints
	mov	r0, r0	@ nop
.L434:
	ldrh	r2, [fp, #-28]
	ldrh	r3, [fp, #-30]
	mov	r0, r2
	mov	r1, r3
	bl	locate
	ldr	r0, .L456+132
	ldr	r1, .L456+16
	bl	prints
	ldrh	r3, [fp, #-30]	@ movhi
	add	r3, r3, #2
	mov	r3, r3, asl #16
	mov	r3, r3, lsr #16
	ldrh	r2, [fp, #-28]
	mov	r0, r2
	mov	r1, r3
	bl	locate
	ldr	r0, .L456+136
	mov	r1, #31
	bl	prints
	ldrh	r3, [fp, #-30]	@ movhi
	add	r3, r3, #4
	mov	r3, r3, asl #16
	mov	r3, r3, lsr #16
	ldrh	r2, [fp, #-28]
	mov	r0, r2
	mov	r1, r3
	bl	locate
	ldr	r0, .L456+140
	ldr	r1, .L456+144
	bl	prints
	ldrh	r3, [fp, #-30]	@ movhi
	add	r3, r3, #6
	mov	r3, r3, asl #16
	mov	r3, r3, lsr #16
	ldrh	r2, [fp, #-28]
	mov	r0, r2
	mov	r1, r3
	bl	locate
	ldr	r0, .L456+148
	mov	r1, #992
	bl	prints
	ldrh	r3, [fp, #-30]	@ movhi
	add	r3, r3, #8
	mov	r3, r3, asl #16
	mov	r3, r3, lsr #16
	ldrh	r2, [fp, #-28]
	mov	r0, r2
	mov	r1, r3
	bl	locate
	ldr	r0, .L456+152
	mov	r1, #31744
	bl	prints
	ldrh	r3, [fp, #-28]	@ movhi
	add	r3, r3, #2
	mov	r3, r3, asl #16
	mov	r2, r3, lsr #16
	ldrh	r3, [fp, #-30]	@ movhi
	add	r3, r3, #1
	mov	r3, r3, asl #16
	mov	r3, r3, lsr #16
	mov	r0, r2
	mov	r1, r3
	bl	locate
	ldrh	r3, [fp, #-26]
	mov	r0, r3
	mov	r1, #5
	ldr	r2, .L456+16
	bl	num_to_string
	ldrh	r3, [fp, #-28]	@ movhi
	add	r3, r3, #3
	mov	r3, r3, asl #16
	mov	r2, r3, lsr #16
	ldrh	r3, [fp, #-30]	@ movhi
	add	r3, r3, #3
	mov	r3, r3, asl #16
	mov	r3, r3, lsr #16
	mov	r0, r2
	mov	r1, r3
	bl	locate
	ldr	r3, .L456
	ldrh	r3, [r3]
	mov	r0, r3
	mov	r1, #4
	mov	r2, #31
	bl	num_to_string
	ldrh	r3, [fp, #-28]	@ movhi
	add	r3, r3, #3
	mov	r3, r3, asl #16
	mov	r2, r3, lsr #16
	ldrh	r3, [fp, #-30]	@ movhi
	add	r3, r3, #5
	mov	r3, r3, asl #16
	mov	r3, r3, lsr #16
	mov	r0, r2
	mov	r1, r3
	bl	locate
	ldr	r3, .L456+4
	ldrh	r3, [r3]
	mov	r0, r3
	mov	r1, #4
	ldr	r2, .L456+144
	bl	num_to_string
	ldrh	r3, [fp, #-28]	@ movhi
	add	r3, r3, #3
	mov	r3, r3, asl #16
	mov	r2, r3, lsr #16
	ldrh	r3, [fp, #-30]	@ movhi
	add	r3, r3, #7
	mov	r3, r3, asl #16
	mov	r3, r3, lsr #16
	mov	r0, r2
	mov	r1, r3
	bl	locate
	ldr	r3, .L456+8
	ldrh	r3, [r3]
	mov	r0, r3
	mov	r1, #4
	mov	r2, #992
	bl	num_to_string
	ldrh	r3, [fp, #-28]	@ movhi
	add	r3, r3, #3
	mov	r3, r3, asl #16
	mov	r2, r3, lsr #16
	ldrh	r3, [fp, #-30]	@ movhi
	add	r3, r3, #9
	mov	r3, r3, asl #16
	mov	r3, r3, lsr #16
	mov	r0, r2
	mov	r1, r3
	bl	locate
	ldr	r3, .L456+12
	ldrh	r3, [r3]
	mov	r0, r3
	mov	r1, #4
	mov	r2, #31744
	bl	num_to_string
	mov	r0, #6
	mov	r1, #12
	bl	locate
	ldr	r3, .L456+156
	ldrh	r3, [r3]
	cmp	r3, #0
	bne	.L441
	ldr	r0, .L456+160
	mov	r1, #31744
	bl	prints
	b	.L442
.L441:
	ldr	r0, .L456+164
	ldr	r1, .L456+144
	bl	prints
.L442:
	mov	r3, #0
	strh	r3, [fp, #-32]	@ movhi
	mov	r3, #0
	strh	r3, [fp, #-12]	@ movhi
.L455:
	ldrh	r3, [fp, #-12]	@ movhi
	strh	r3, [fp, #-32]	@ movhi
	bl	judge_key
	mov	r3, r0
	strh	r3, [fp, #-12]	@ movhi
	ldrh	r3, [fp, #-32]
	and	r3, r3, #32
	cmp	r3, #0
	bne	.L443
	ldrh	r3, [fp, #-12]
	and	r3, r3, #32
	cmp	r3, #0
	beq	.L443
	ldrh	r3, [fp, #-14]
	cmp	r3, #0
	bne	.L444
	mov	r3, #2
	strh	r3, [fp, #-14]	@ movhi
	b	.L446
.L444:
	ldrh	r3, [fp, #-14]
	sub	r3, r3, #1
	strh	r3, [fp, #-14]	@ movhi
	b	.L446
.L443:
	ldrh	r3, [fp, #-32]
	and	r3, r3, #16
	cmp	r3, #0
	bne	.L446
	ldrh	r3, [fp, #-12]
	and	r3, r3, #16
	cmp	r3, #0
	beq	.L446
	ldrh	r3, [fp, #-14]
	cmp	r3, #2
	bne	.L447
	mov	r3, #0
	strh	r3, [fp, #-14]	@ movhi
	b	.L446
.L447:
	ldrh	r3, [fp, #-14]
	add	r3, r3, #1
	strh	r3, [fp, #-14]	@ movhi
.L446:
	mov	r3, #0
	strh	r3, [fp, #-6]	@ movhi
	b	.L448
.L449:
	ldrh	r3, [fp, #-6]
	mov	r3, r3, asl #1
	sub	r2, fp, #4
	add	r3, r2, r3
	sub	r3, r3, #36
	mvn	r2, #32768
	strh	r2, [r3]	@ movhi
	ldrh	r3, [fp, #-14]
	mov	r3, r3, asl #1
	sub	r2, fp, #4
	add	r3, r2, r3
	sub	r3, r3, #36
	mov	r2, #31
	strh	r2, [r3]	@ movhi
	ldrh	r3, [fp, #-6]
	add	r3, r3, #1
	strh	r3, [fp, #-6]	@ movhi
.L448:
	ldrh	r3, [fp, #-6]
	cmp	r3, #2
	bls	.L449
	mov	r0, #4
	mov	r1, #16
	bl	locate
	ldrh	r3, [fp, #-40]
	ldr	r0, .L456+168
	mov	r1, r3
	bl	prints
	mov	r0, #12
	mov	r1, #16
	bl	locate
	ldrh	r3, [fp, #-38]
	ldr	r0, .L456+172
	mov	r1, r3
	bl	prints
	mov	r0, #21
	mov	r1, #16
	bl	locate
	ldrh	r3, [fp, #-36]
	ldr	r0, .L456+176
	mov	r1, r3
	bl	prints
	ldrh	r3, [fp, #-32]
	and	r3, r3, #8
	cmp	r3, #0
	bne	.L450
	ldrh	r3, [fp, #-12]
	and	r3, r3, #8
	cmp	r3, #0
	beq	.L450
	ldrh	r3, [fp, #-14]
	cmp	r3, #0
	bne	.L451
	ldr	r3, .L456+180
	mov	r2, #0
	strh	r2, [r3]	@ movhi
	b	.L452
.L451:
	ldrh	r3, [fp, #-14]
	cmp	r3, #1
	bne	.L453
	ldr	r3, .L456+180
	mov	r2, #2
	strh	r2, [r3]	@ movhi
	b	.L452
.L453:
	ldrh	r3, [fp, #-14]
	cmp	r3, #2
	bne	.L454
	ldr	r3, .L456+180
	mov	r2, #3
	strh	r2, [r3]	@ movhi
	b	.L452
.L454:
	b	.L452
.L450:
	b	.L455
.L452:
	ldr	r3, .L456
	mov	r2, #0
	strh	r2, [r3]	@ movhi
	ldr	r3, .L456+4
	mov	r2, #0
	strh	r2, [r3]	@ movhi
	ldr	r3, .L456+8
	mov	r2, #0
	strh	r2, [r3]	@ movhi
	ldr	r3, .L456+12
	mov	r2, #0
	strh	r2, [r3]	@ movhi
	ldr	r3, .L456+184
	mov	r2, #4
	strh	r2, [r3]	@ movhi
	ldr	r3, .L456+188
	mov	r2, #0
	strh	r2, [r3]	@ movhi
	sub	sp, fp, #4
	@ sp needed
	ldmfd	sp!, {fp, lr}
	bx	lr
.L457:
	.align	2
.L456:
	.word	best
	.word	cool
	.word	good
	.word	miss
	.word	32767
	.word	.LC139
	.word	.LC140
	.word	.LC141
	.word	32736
	.word	.LC142
	.word	speed
	.word	.LC143
	.word	interval_note
	.word	.LC144
	.word	.LC145
	.word	.LC146
	.word	.LC147
	.word	.LC148
	.word	.LC149
	.word	.LC150
	.word	.LC151
	.word	.LC152
	.word	.LC153
	.word	limit_time
	.word	6000
	.word	3000
	.word	9000
	.word	12000
	.word	.LC154
	.word	.LC155
	.word	.LC156
	.word	.LC157
	.word	.LC128
	.word	.LC7
	.word	.LC8
	.word	.LC9
	.word	1023
	.word	.LC10
	.word	.LC11
	.word	is_clear
	.word	.LC158
	.word	.LC159
	.word	.LC160
	.word	.LC96
	.word	.LC161
	.word	phase
	.word	67109134
	.word	67109132
	.size	begin_end, .-begin_end
	.ident	"GCC: (devkitARM release 44) 4.9.2"
